(lp0
S'Marc Samuelson'
p1
aS'Paula Mae Schwartz'
p2
aS'Roscoe Karns'
p3
aS'W. Peter Iliff'
p4
aS'Cam Gigandet'
p5
aS'Michael Chandler'
p6
aS'Yukiko Shimazaki'
p7
aS'Michael Tollin'
p8
aS'Thandie Newton'
p9
aS'Bruce Bennett'
p10
aS'Yohei Taneda'
p11
aS'Gary Kemp'
p12
aS'Patrick Fontana'
p13
aS'Frederick Treves'
p14
aS'Donald W. Ernst'
p15
aS'Peter Guber'
p16
aS'Glen Morgan'
p17
aS'Sean Patrick Flanery'
p18
aS'Robert Reneau'
p19
aS'Sam Worthington'
p20
aS'Ernestine Gilbreth Carey'
p21
aS'Chelsea Field'
p22
aS'Luis de la Madrid'
p23
aS'Claude Rains'
p24
aS'Allen Hughes'
p25
aS'Christina Eleusiniotis'
p26
aS'Debra Hill'
p27
aS'Derek Luke'
p28
aS'Stephen Sondheim'
p29
aS'Karl Struss'
p30
aS'Eminem'
p31
aS'Shane Brolly'
p32
aS'Channing Gibson'
p33
aS'Roy Webb'
p34
aS'Christian Camargo'
p35
aS'Craig Baumgarten'
p36
aS'Glen Cavender'
p37
aS'Sheldon Kahn'
p38
aS'Nick Wechsler'
p39
aS'Stokely Chaffin'
p40
aS'Michael Strong'
p41
aS'Lewis Gilbert'
p42
aS'Paul Monash'
p43
aS'Avery Corman'
p44
aS'Shawn Wayans'
p45
aS'Christopher Leitch'
p46
aS'Tennessee Williams'
p47
aS'Eric Darnell'
p48
aS'Diane Thomas'
p49
aS'Stevie Long'
p50
aS'Carlo Di Palma'
p51
aS'Silvio Horta'
p52
aS'Beno\xc3\xaet Debie'
p53
aS'Tom Rosenberg'
p54
aS'Stuart Rosenberg'
p55
aS'Ken Li'
p56
aS'Jeff Gourson'
p57
aS'Norman Hollyn'
p58
aS'Michelle Monaghan'
p59
aS'Ian Mongrain'
p60
aS'L. Ron Hubbard'
p61
aS'Burt Young'
p62
aS'Manner Washington'
p63
aS'Dean Riesner'
p64
aS'Steven Haft'
p65
aS'Hardy Kr\xc3\xbcger'
p66
aS'David Giler'
p67
aS'Paul Haggis'
p68
aS'P.L. Travers'
p69
aS'Bob Weinstein'
p70
aS'Maurice Gibb'
p71
aS'Tom Gorai'
p72
aS'Anthony Perkins'
p73
aS'Ron Perlman'
p74
aS'Jason Patric'
p75
aS'Sean Penn'
p76
aS'George Peppard'
p77
aS'Alan Parker'
p78
aS'Robert Kulzer'
p79
aS'Sarah Jessica Parker'
p80
aS'Craig Titley'
p81
aS'Delia Ephron'
p82
aS'Vincent Cassel'
p83
aS'George Chakiris'
p84
aS'Michael Caton-Jones'
p85
aS'Jim Thomas'
p86
aS'Chris Matheson'
p87
aS'Mary Orr'
p88
aS'Alan Oxman'
p89
aS'Daniel Br\xc3\xbchl'
p90
aS'Robert L. Levy'
p91
aS'Arnold Rifkin'
p92
aS'Peter Sarsgaard'
p93
aS'Dennis Farina'
p94
aS'Adam Sandler'
p95
aS'Neal Purvis'
p96
aS'Peter Jackson'
p97
aS'John Singleton'
p98
aS'Kevin Jarre'
p99
aS'Sinbad'
p100
aS'Jeremy Sisto'
p101
aS'Guillermo Arriaga'
p102
aS'Jamie Delano'
p103
aS'Lisanne Falk'
p104
aS'Suzanna Hamilton'
p105
aS'Richard Tuggle'
p106
aS'Allan Knee'
p107
aS'Peter Fonda'
p108
aS'James Foley'
p109
aS'Lara Flynn Boyle'
p110
aS'Jim Lovell'
p111
aS'Louise Fletcher'
p112
aS'Ian Fleming'
p113
aS'Natasha Henstridge'
p114
aS'Albert Hughes'
p115
aS'Rene Auberjonois'
p116
aS'Devon Sawa'
p117
aS'Sammy Lee'
p118
aS'Bill Lancaster'
p119
aS'Jennifer Gibgot'
p120
aS'Scott Kosar'
p121
aS'Hans Conried'
p122
aS'Miriam Shor'
p123
aS'Andrew Wald'
p124
aS'Judd Apatow'
p125
aS'Catherine Knapman'
p126
aS'Mike Rich'
p127
aS'Sylvester Levay'
p128
aS'Ross Katz'
p129
aS'Keir Pearson'
p130
aS'Jamie Selkirk'
p131
aS'Glenne Headly'
p132
aS'Orlando Bloom'
p133
aS'Lindsay Lohan'
p134
aS'Kenneth Lonergan'
p135
aS'Erik Stolhanske'
p136
aS'Jeffrey Price'
p137
aS'Jake LaMotta'
p138
aS'Chester Conklin'
p139
aS'George Linder'
p140
aS'Moo-Ryoung Kim'
p141
aS'Betsy Palmer'
p142
aS'Jon Harris'
p143
aS'Alejandro Gonz\xc3\xa1lez I\xc3\xb1\xc3\xa1rritu'
p144
aS'Pierre Spengler'
p145
aS'tomandandy'
p146
aS'Adam F.'
p147
aS'Xolani Mali'
p148
aS'Vanessa Hudgens'
p149
aS'Eric Watson'
p150
aS'Josh Goldsmith'
p151
aS'Emma Watson'
p152
aS'Eric Mabius'
p153
aS'Teri Schwartz'
p154
aS"Richard O'Brien"
p155
aS'Peter James'
p156
aS'Michel Faber'
p157
aS'Lorelei Linklater'
p158
aS'Harold Manning'
p159
aS'Michael C. Hall'
p160
aS'James L. White'
p161
aS'Nathan Greno'
p162
aS'Florent-Emilio Siri'
p163
aS'Harve Bennett'
p164
aS'Pete Woodhead'
p165
aS'Dorothy Clarke Wilson'
p166
aS'Jim Dultz'
p167
aS'Amy Robinson'
p168
aS'Andrew Robinson'
p169
aS'Sarah Flack'
p170
aS'Jason Richman'
p171
aS'Geoff Rodkey'
p172
aS'Bette Davis'
p173
aS'Gary Cooper'
p174
aS'Marlene Dietrich'
p175
aS'Georges Delerue'
p176
aS'Gerald McRaney'
p177
aS'Michael McKean'
p178
aS'Albert Hackett'
p179
aS'Federico Fellini'
p180
aS'Cleo King'
p181
aS'Colm Feore'
p182
aS'Sam Mendes'
p183
aS'Breckin Meyer'
p184
aS'Debra Messing'
p185
aS'Harry Stradling Sr.'
p186
aS'Harry Dean Stanton'
p187
aS'Vittorio Storaro'
p188
aS'Rod Steiger'
p189
aS'Dante Spinotti'
p190
aS'Adam Goldberg'
p191
aS'Lyudmila Feyginova'
p192
aS'Roberto Benigni'
p193
aS'Annette Bening'
p194
aS'Jean-Paul Belmondo'
p195
aS'Alex Thomson'
p196
aS'James Belushi'
p197
aS'Kathleen Kennedy'
p198
aS'Marilyn Manson'
p199
aS'Karl Malden'
p200
aS'Eric Tsang'
p201
aS'Penny Marshall'
p202
aS'Isabel Lucas'
p203
aS'Mario Brega'
p204
aS'Tommy Pallotta'
p205
aS'Darryl Quarles'
p206
aS'Susanne Bier'
p207
aS'Harvey Bernhard'
p208
aS'Petchtai Wongkamlao'
p209
aS'Tullio Pinelli'
p210
aS'Iain Softley'
p211
aS'Raja Gosnell'
p212
aS'Reginald Rose'
p213
aS'Min-sik Choi'
p214
aS'Chris Hemsworth'
p215
aS'Michael Fassbender'
p216
aS'Jon Tenney'
p217
aS'Ben Foster'
p218
aS'Jamie Foxx'
p219
aS'Charles de Lauzirika'
p220
aS'Robert Krasker'
p221
aS'F. Gary Gray'
p222
aS'Yoshiaki Kawajiri'
p223
aS'Russell Streiner'
p224
aS'David Lean'
p225
aS'Richard Loncraine'
p226
aS'Omar N. Bradley'
p227
aS'Michael Logan'
p228
aS'Ken Seng'
p229
aS'Russell Boyd'
p230
aS'Jeffery Deaver'
p231
aS'Ashley Montagu'
p232
aS'Steven A. Jones'
p233
aS'F. Scott Fitzgerald'
p234
aS'Steve Martin'
p235
aS'Scott Alexander'
p236
aS'David Naughton'
p237
aS'Lewis R. Foster'
p238
aS'George Tillman Jr.'
p239
aS'Raymond Chandler'
p240
aS'Ron Kovic'
p241
aS'Janet Lucroy'
p242
aS'Rick Gonzalez'
p243
aS'Jennifer Heath'
p244
aS'Liz Glotzer'
p245
aS'Vivian Kubrick'
p246
aS'Peck Prior'
p247
aS'Hank Moonjean'
p248
aS'Toby Emmerich'
p249
aS'Jane Galloway Heitz'
p250
aS'Tim Bevan'
p251
aS'Florence Lee'
p252
aS'Stephen Herek'
p253
aS'Jay Baruchel'
p254
aS'Ortwin Freyermuth'
p255
aS'Samantha Morton'
p256
aS'Lea Thompson'
p257
aS'Richard Edson'
p258
aS'Jeff Apple'
p259
aS'Jos\xc3\xa9 Luis Alcaine'
p260
aS'Lionel Barrymore'
p261
aS'Dominic Muldowney'
p262
aS'John W. Campbell Jr.'
p263
aS'Seth Meyers'
p264
aS'Stan Redding'
p265
aS'Michael Frost Beckner'
p266
aS'Deborah Kara Unger'
p267
aS'Stuart Benjamin'
p268
aS'Claudio Miranda'
p269
aS'Edmund H. North'
p270
aS'Chad Oman'
p271
aS'Clea DuVall'
p272
aS'Robert Ludlum'
p273
aS'Dariusz Wolski'
p274
aS'Yun Qu'
p275
aS'Allen Covert'
p276
aS'Martin Campbell'
p277
aS'Richard Lewis'
p278
aS'Daphne Du Maurier'
p279
aS'Jeremy Coon'
p280
aS'Walter Campbell'
p281
aS'Treva Silverman'
p282
aS'Tony Jaa'
p283
aS'Combustible Edison'
p284
aS'Dominique Pinon'
p285
aS'Ian Holm'
p286
aS'Simon Wincer'
p287
aS'Michael Caine'
p288
aS'Emmanuelle B\xc3\xa9art'
p289
aS'Charles Henry Smith'
p290
aS'John Romano'
p291
aS'Ma\xc3\xafwenn'
p292
aS'Dennis Hopper'
p293
aS'Dede Allen'
p294
aS'Michael Buchanan'
p295
aS'Ayano Shiraishi'
p296
aS'Judie Hoyt'
p297
aS'Dean Parisot'
p298
aS'Jordan Kerner'
p299
aS'Tony Thomas'
p300
aS'Jack Giarraputo'
p301
aS'John D. Schofield'
p302
aS'Lorne Orleans'
p303
aS'Jaime Comas Gil'
p304
aS'Pete Postlethwaite'
p305
aS'Kelly Preston'
p306
aS'Roman Polanski'
p307
aS'Jonathan Pryce'
p308
aS'Bill Pullman'
p309
aS'John Ottman'
p310
aS'Dennis Quaid'
p311
aS'Kathleen Quinlan'
p312
aS'Rachel Griffiths'
p313
aS'Julia Phillips'
p314
aS'John Thomas'
p315
aS'Miranda Otto'
p316
aS'Richard Wenk'
p317
aS'Jack Engelhard'
p318
aS'David Herman'
p319
aS'Delroy Lindo'
p320
aS'Joe Medjuck'
p321
aS'Jane Seymour'
p322
aS'Dino De Laurentiis'
p323
aS'Janet Zucker'
p324
aS'Jerry Zucker'
p325
aS'Tom Bleecker'
p326
aS'Robert A. Ferretti'
p327
aS'Toru Hara'
p328
aS'David Brenner'
p329
aS'Sally Menke'
p330
aS'Hans Christian Andersen'
p331
aS'Jim Strain'
p332
aS'Sadie Frost'
p333
aS'Eva Gabor'
p334
aS'Nick Glennie-Smith'
p335
aS'Doug E. Doug'
p336
aS'Dennis Franz'
p337
aS'William Friedkin'
p338
aS'Garret Dillahunt'
p339
aS'John Bloom'
p340
aS'Scott Wolf'
p341
aS'Peter C. Frank'
p342
aS'Daisuke Tengan'
p343
aS'Martha De Laurentiis'
p344
aS'Craig Gillespie'
p345
aS'Jeremy Leven'
p346
aS'Omri Katz'
p347
aS'Jordan Taylor'
p348
aS'Ryne Douglas Pearson'
p349
aS'Mark Isham'
p350
aS'Bj\xc3\xb6rn Isf\xc3\xa4lt'
p351
aS'Steve Bloom'
p352
aS'Gael Garc\xc3\xada Bernal'
p353
aS'Adam Bohling'
p354
aS'Don Bohlinger'
p355
aS'Robert Simonds'
p356
aS'Alfred Uhry'
p357
aS'Steve Pink'
p358
aS'Russell Smith'
p359
aS'Michael C. Gross'
p360
aS'Jane Hamsher'
p361
aS'Alex McArthur'
p362
aS'Shyann McClure'
p363
aS'David Madden'
p364
aS'Nancy Juvonen'
p365
aS'Lorenzo Semple Jr.'
p366
aS'Jordi Moll\xc3\xa0'
p367
aS'Judith Thurman'
p368
aS'Rodrigo Santoro'
p369
aS'Jack Golden Russell'
p370
aS'Wayne Kramer'
p371
aS'Neil Canton'
p372
aS'Christophe Beck'
p373
aS'Alison Crosbie'
p374
aS'James Fleet'
p375
aS'David E. Blewitt'
p376
aS'Rodrigo Cort\xc3\xa9s'
p377
aS'Richard P. Henrick'
p378
aS'Harold Budd'
p379
aS'Guillermo del Toro'
p380
aS'Rosamund Pike'
p381
aS'Mel Stuart'
p382
aS'E.B. White'
p383
aS'Jason Behr'
p384
aS'James Van Der Beek'
p385
aS'Keiko Tsushima'
p386
aS'Arthur Laurents'
p387
aS'Hayden Herrera'
p388
aS'Suzanne Todd'
p389
aS'Steve-O'
p390
aS'Michael Murphy'
p391
aS'Steven E. de Souza'
p392
aS'Christoph Waltz'
p393
aS'Greg Brenman'
p394
aS'William C. Carruth'
p395
aS'Corbin Bernsen'
p396
aS'Sandra Bernhard'
p397
aS'Michael Biehn'
p398
aS'Candice Bergen'
p399
aS'Molly Shannon'
p400
aS'Kate Beckinsale'
p401
aS'Sandahl Bergman'
p402
aS'Tom Berenger'
p403
aS'Patrick Bergin'
p404
aS'Angela Bassett'
p405
aS'John Barry'
p406
aS'Sean Bean'
p407
aS'Elizabeth Berkley'
p408
aS'Brian Tyler'
p409
aS'Jaume Collet-Serra'
p410
aS'Stephen Mirrione'
p411
aS'Erik Per Sullivan'
p412
aS'Charles Frazier'
p413
aS'Robert Crais'
p414
aS'Tech Akarapol'
p415
aS'Kevin Michael Richardson'
p416
aS'Adam Shankman'
p417
aS'Ed Oxenbould'
p418
aS'Kurt Voelker'
p419
aS'Laurice Elehwany'
p420
aS'Richard Klubeck'
p421
aS'Donald De Line'
p422
aS'Maggie Smith'
p423
aS'O.J. Simpson'
p424
aS'Bryan Singer'
p425
aS'Tom Sizemore'
p426
aS'Stellan Skarsg\xc3\xa5rd'
p427
aS'Charles Martin Smith'
p428
aS'Jennifer Davisson'
p429
aS'Keith David'
p430
aS'Mehra Meh'
p431
aS'Carl Bernstein'
p432
aS'Walon Green'
p433
aS'Ed Harris'
p434
aS'Paula Gosling'
p435
aS'Steve Starkey'
p436
aS'Taylor Hackford'
p437
aS'Gene Hackman'
p438
aS'Daryl Hannah'
p439
aS'Mark Hamill'
p440
aS'Andrew Licht'
p441
aS'Curtis Hanson'
p442
aS'Jennifer Garner'
p443
aS'Brad Garrett'
p444
aS'Thomas Gibson'
p445
aS'Yimou Zhang'
p446
aS'Penney Finkelman Cox'
p447
aS'David Leslie Johnson'
p448
aS'Patrick McGoohan'
p449
aS'Elizabeth McGovern'
p450
aS'Christopher McDonald'
p451
aS'Mary McDonnell'
p452
aS'Roddy McDowall'
p453
aS'Natascha McElhone'
p454
aS'Jack Hawkins'
p455
aS'Leo Tolstoy'
p456
aS'Sandy Dennis'
p457
aS'William Lee Scott'
p458
aS'Gerald R. Molen'
p459
aS'Jon Shestack'
p460
aS'Russell Carpenter'
p461
aS'Jeremy Irons'
p462
aS'Steven Knight'
p463
aS'Robert Gunter'
p464
aS'Hugh Marlowe'
p465
aS'Aaron Russo'
p466
aS'Clifford Werber'
p467
aS'David Duncan'
p468
aS'Chris Evans'
p469
aS'Jamie Blanks'
p470
aS'Loy Mendonsa'
p471
aS'Roger Birnbaum'
p472
aS'J.E. Freeman'
p473
aS'Anders Thomas Jensen'
p474
aS'Andrew Neiderman'
p475
aS'Jason Flemyng'
p476
aS'Peter Finch'
p477
aS'Will Ferrell'
p478
aS'Richard Farnsworth'
p479
aS'Frederic Forrest'
p480
aS'Daniel Richter'
p481
aS'Nile Rodgers'
p482
aS'Tim Squyres'
p483
aS'Paul Benjamin'
p484
aS'Giorgio Moroder'
p485
aS'Robert Luketic'
p486
aS'Colin Clive'
p487
aS'Washington Irving'
p488
aS'Deems Taylor'
p489
aS'Louis Calhern'
p490
aS'Franklin Cover'
p491
aS'Bob Clark'
p492
aS'Thomas Carter'
p493
aS'Howard Rosenman'
p494
aS'Curt Bois'
p495
aS'Errol Trzebinski'
p496
aS'Kwong Wing Chan'
p497
aS'Nicoletta Braschi'
p498
aS'Garon Tsuchiya'
p499
aS'Phedon Papamichael'
p500
aS'Hal Ashby'
p501
aS'Daniel Lanois'
p502
aS'Fernando P\xc3\xa9rez Unda'
p503
aS'Tom Arnold'
p504
aS'Christoph Darnst\xc3\xa4dt'
p505
aS'Michael Kamen'
p506
aS'Rebecca Ferguson'
p507
aS'Buck Henry'
p508
aS'Luis Llosa'
p509
aS'Ralph Rosenblum'
p510
aS'Herv\xc3\xa9 Schneid'
p511
aS'Lawrence A. Bonney'
p512
aS'Serge Silberman'
p513
aS'Ronald Shusett'
p514
aS'Bob Tzudiker'
p515
aS'Dennis Lee'
p516
aS'Peter Cattaneo'
p517
aS'Caroline Thompson'
p518
aS'Bob Ducsay'
p519
aS'Derek Rogers'
p520
aS'Sam Raimi'
p521
aS'Harold Ramis'
p522
aS'Jean Reno'
p523
aS'John C. Reilly'
p524
aS'Brad Renfro'
p525
aS'Burt Reynolds'
p526
aS'Ving Rhames'
p527
aS'Derek Haas'
p528
aS'Heather Hach'
p529
aS'Jeff Maguire'
p530
aS'Frances Bay'
p531
aS'Jason Shuman'
p532
aS'Fulvio Morsella'
p533
aS'Stephen J. Rivele'
p534
aS'P.J. Hogan'
p535
aS'James Kearns'
p536
aS'Joshua McIvor'
p537
aS'Nikolay Grinko'
p538
aS'Rob Tapert'
p539
aS'Mary-Louise Parker'
p540
aS'Kenneth Utt'
p541
aS'Cecilia Roth'
p542
aS'Joe Roth'
p543
aS'Ray Romano'
p544
aS'William Wisher Jr.'
p545
aS'Bo Goldman'
p546
aS'Freddie Fields'
p547
aS'Catherine Chan'
p548
aS'Rudi Fehr'
p549
aS'Richard Hashimoto'
p550
aS'Jason Keller'
p551
aS'Jesper Christensen'
p552
aS'Robert Loggia'
p553
aS'Inge Landgut'
p554
aS'Motonori Sakakibara'
p555
aS'Karen Lynn Gorney'
p556
aS'James Sallis'
p557
aS'Bonnie Turner'
p558
aS'Bob Tracey'
p559
aS'Ben Gazzara'
p560
aS'Rebecca Gayheart'
p561
aS'John Gavin'
p562
aS'Bill Roberts'
p563
aS'Sarah Michelle Gellar'
p564
aS'Brian Doyle-Murray'
p565
aS'Alan Riche'
p566
aS'Doug Richardson'
p567
aS'Don Rickles'
p568
aS'Steve Perry'
p569
aS'Georgi Rerberg'
p570
aS'Harry Brown'
p571
aS'JoAnne Sellar'
p572
aS'Marvin Hamlisch'
p573
aS'John Walker'
p574
aS'Stefan Arndt'
p575
aS'Phil Hartman'
p576
aS'Harold Livingston'
p577
aS'Matthew Kimbrough'
p578
aS'Jack Kirby'
p579
aS'John August'
p580
aS'Xavi Gim\xc3\xa9nez'
p581
aS'Maxwell Anderson'
p582
aS'Lionel White'
p583
aS'David Rabe'
p584
aS'Leopold Stokowski'
p585
aS'Kevin Shields'
p586
aS'Jeroen Krabb\xc3\xa9'
p587
aS'Jim Kouf'
p588
aS'Robert C. Jones'
p589
aS'Dawn Didawick'
p590
aS'Brian Koppelman'
p591
aS'Michael Beck'
p592
aS'Gil Netter'
p593
aS'Geoffrey Jenkins'
p594
aS'Mike Mignola'
p595
aS"Michael O'Donoghue"
p596
aS'Kar-Wai Wong'
p597
aS'Maggie Grace'
p598
aS'Jay Russell'
p599
aS'Lowell Ganz'
p600
aS'Richard Reitinger'
p601
aS'Olivia Williams'
p602
aS'Stevan Larner'
p603
aS'Alexander Korda'
p604
aS'Giuseppe Amato'
p605
aS'Stu Linder'
p606
aS'Iain Smith'
p607
aS'Tony Lo Bianco'
p608
aS'Karen Leigh Hopkins'
p609
aS'Daniel Goldberg'
p610
aS'Sean Moynihan'
p611
aS'John C. Howard'
p612
aS'Akhenaton'
p613
aS'Bill Richmond'
p614
aS'Curd J\xc3\xbcrgens'
p615
aS'Samy Naceri'
p616
aS'New Order'
p617
aS'Anthony B. Richmond'
p618
aS'Darren Aronofsky'
p619
aS'Dawn Steel'
p620
aS'Ira Levin'
p621
aS'Jerzy Zielinski'
p622
aS'Mark Goldblatt'
p623
aS'Dody Dorn'
p624
aS'Federico Luppi'
p625
aS'Willard Nico'
p626
aS'Tom Jacobson'
p627
aS'Charlotte Whitby-Coles'
p628
aS'Vanessa Angel'
p629
aS'Harry Kurnitz'
p630
aS'Lorraine Gary'
p631
aS'James Crabe'
p632
aS'Dean Georgaris'
p633
aS'Michael Coulter'
p634
aS'Johanna Harwood'
p635
aS'Claire Simpson'
p636
aS'Robert Ramsey'
p637
aS'Francis Lawrence'
p638
aS'David Ellison'
p639
aS'Ted Berner'
p640
aS'Remi Adefarasin'
p641
aS'Brian Zarate'
p642
aS'Helen Shaver'
p643
aS'Robert Shaw'
p644
aS'Tony Shalhoub'
p645
aS'John M. Davis'
p646
aS'Rufus Sewell'
p647
aS'Tom Shadyac'
p648
aS'Chlo\xc3\xab Sevigny'
p649
aS'Judy Hofflund'
p650
aS'Rachael Harris'
p651
aS'Frank Thomas'
p652
aS'Mauro Fiore'
p653
aS'Jean-Luc Godard'
p654
aS'Danny Glover'
p655
aS'Crispin Glover'
p656
aS'Terry Gilliam'
p657
aS'Brian Grazer'
p658
aS'Teri Garr'
p659
aS'Janeane Garofalo'
p660
aS'Edward Furlong'
p661
aS'Bill McKinney'
p662
aS'Roald Dahl'
p663
aS'Timothy Dalton'
p664
aS'Ike Barinholtz'
p665
aS'Mark Dacascos'
p666
aS'John Dahl'
p667
aS'John Ball'
p668
aS'Rodney Dangerfield'
p669
aS'Jeff Daniels'
p670
aS'Iva Davies'
p671
aS'Anne Walker-McBay'
p672
aS'Bruce Wagner'
p673
aS'Don Paul'
p674
aS'Terry Alexander'
p675
aS'Russ Tamblyn'
p676
aS'\xc3\x81lvaro Guerrero'
p677
aS'Ryan Rowe'
p678
aS'John Jarrell'
p679
aS'Akemi Suyama'
p680
aS'Casey Gooden'
p681
aS'John Gallagher Jr.'
p682
aS'Kate Siegel'
p683
aS'Rick Alvarez'
p684
aS'Ward Russell'
p685
aS'Anthony Shaffer'
p686
aS'Clarence Budington Kelland'
p687
aS'Ritesh Sidhwani'
p688
aS'Bob Gale'
p689
aS'Carlo Ponti'
p690
aS'Karina Arroyave'
p691
aS'Peggy Lee'
p692
aS'Adriano Bolzoni'
p693
aS'Clifton Powell'
p694
aS'Karl Urban'
p695
aS'Andy Breckman'
p696
aS'Robert Humphreys'
p697
aS'Michael Hirst'
p698
aS'Chris Conrad'
p699
aS'Abi Morgan'
p700
aS'Terry George'
p701
aS'Alexander Gruszynski'
p702
aS'John Baldecchi'
p703
aS'Michael Gore'
p704
aS'Lee J. Cobb'
p705
aS'Paul Seydor'
p706
aS'Ren\xc3\xa9e Zellweger'
p707
aS'D.M. Marshman Jr.'
p708
aS'David Seltzer'
p709
aS'Richard N. Gladstein'
p710
aS'William Nicholson'
p711
aS'Gregg Hoffman'
p712
aS'Sean Young'
p713
aS'Bruce Graham'
p714
aS'Alan Alda'
p715
aS'Zak Penn'
p716
aS'Jenny Agutter'
p717
aS'Mark Peploe'
p718
aS'Adam Hamilton'
p719
aS'Peter Grunwald'
p720
aS'Michael Trucco'
p721
aS'David Koepp'
p722
aS'Emilie de Ravin'
p723
aS'Gilles Adrien'
p724
aS'Dorsey Wright'
p725
aS'Yoram Globus'
p726
aS'Bruce Altman'
p727
aS'Michael Nozik'
p728
aS'Janet Scott Batchler'
p729
aS'Mahiro Maeda'
p730
aS'John Boles'
p731
aS'Nellie Bly Baker'
p732
aS'Bill Freda'
p733
aS'Howard G. Kazanjian'
p734
aS'Javier C\xc3\xa1mara'
p735
aS'Ladislas Farago'
p736
aS'Ingrid Thulin'
p737
aS'Birgitte Hald'
p738
aS'Ilyssa Goodman'
p739
aS'Daniel Pyne'
p740
aS'Joe Shuster'
p741
aS'Larry Roberts'
p742
aS'Brian Regan'
p743
aS'Lewis Friedman'
p744
aS'Hugh Laurie'
p745
aS'Harry Saltzman'
p746
aS'Joshua Oppenheimer'
p747
aS'Jerry Siegel'
p748
aS'Corey Burton'
p749
aS'Cyril Cusack'
p750
aS'Jeremy Iacone'
p751
aS'Robert Burks'
p752
aS'Margaretha Krook'
p753
aS'Alan Poul'
p754
aS'Thomas Hargrove'
p755
aS'Brian Oliver'
p756
aS'Robert A. Heinlein'
p757
aS'Robert Gordon'
p758
aS'Jay Roach'
p759
aS'Brian Robbins'
p760
aS'Alan Marshall'
p761
aS'Oliver Scholl'
p762
aS'Leandro Firmino'
p763
aS'Conrad Buff IV'
p764
aS'Amy Hobby'
p765
aS'Mickey Rourke'
p766
aS'Kurt Russell'
p767
aS'Theresa Russell'
p768
aS'Rene Russo'
p769
aS'Laura San Giacomo'
p770
aS'Philippa Braithwaite'
p771
aS'Joseph Singer'
p772
aS'Nick McLean'
p773
aS'Harmony Korine'
p774
aS'Jet Li'
p775
aS'Robert Dorfmann'
p776
aS'Felicity Jones'
p777
aS'Robert Stigwood'
p778
aS'Anthony Burgess'
p779
aS'David Weissman'
p780
aS'Joe Wright'
p781
aS'Tony Goldwyn'
p782
aS'Vincenzo Natali'
p783
aS'Kelsey Grammer'
p784
aS'Barret Oliver'
p785
aS'Nancy Meyers'
p786
aS'Panward Hemmanee'
p787
aS'Tracy Keenan Wynn'
p788
aS'Larry Levin'
p789
aS'Richard Sakai'
p790
aS'Mennan Yapo'
p791
aS'Ericson Core'
p792
aS'Eileen Brennan'
p793
aS'Miles Goodman'
p794
aS'Wah Yuen'
p795
aS'Joel B. Michaels'
p796
aS'Stanley Kramer'
p797
aS'Elliot Goldenthal'
p798
aS'Ernest Gold'
p799
aS'Gabriel Macht'
p800
aS'Ravi Shankar'
p801
aS'Louise Lombard'
p802
aS'K\xc3\xb4ji Morimoto'
p803
aS'Alison Lohman'
p804
aS'Larry Gross'
p805
aS'Arthur Max'
p806
aS'Brent Maddock'
p807
aS'Leon'
p808
aS'Alexandre Dumas'
p809
aS'Christo Jivkov'
p810
aS'Robert Roy Pool'
p811
aS'Lauran Paine'
p812
aS'John Frizzell'
p813
aS'Vince DiCola'
p814
aS'Phellipe Haagensen'
p815
aS'Donn Cambern'
p816
aS'Shonda Rhimes'
p817
aS'Albert Dupontel'
p818
aS'Elliot Davis'
p819
aS'Mark Morgan'
p820
aS'Akiko Wakabayashi'
p821
aS'T. Hee'
p822
aS'Jeremy Renner'
p823
aS'Harold Perrineau'
p824
aS'Jesse Dylan'
p825
aS'Gary Winick'
p826
aS'Takeshi Koike'
p827
aS'Walter Raney'
p828
aS'Robert Leighton'
p829
aS'Robbie Kondor'
p830
aS'Hideo Oguni'
p831
aS'Jennifer Coolidge'
p832
aS'Jim Uhls'
p833
aS'Dennis McCarthy'
p834
aS'Barry Fanaro'
p835
aS'Adrien Brody'
p836
aS'Charles Crichton'
p837
aS'Warren Oates'
p838
aS'W.R. Burnett'
p839
aS'Joe Belcher'
p840
aS'Mich\xc3\xa8le P\xc3\xa9tin'
p841
aS'Laurent P\xc3\xa9tin'
p842
aS'Darryl F. Zanuck'
p843
aS'Dean Zanuck'
p844
aS'Michael Andrews'
p845
aS'Gabriella Martinelli'
p846
aS'Arthur Edeson'
p847
aS'Lucas Black'
p848
aS'Colin Patrick Lynch'
p849
aS'Jonathan Hensleigh'
p850
aS'Robert Louis Stevenson'
p851
aS'Owen Marks'
p852
aS'\xc3\x89ric Serra'
p853
aS'Eduardo Serra'
p854
aS'Richard McCabe'
p855
aS'Maher Ahmad'
p856
aS'Asakazu Nakai'
p857
aS'Vera Farmiga'
p858
aS'Richard Crenna'
p859
aS'Steve Zahn'
p860
aS'Steven Zaillian'
p861
aS'Michael Schoeffling'
p862
aS'Paul Schrader'
p863
aS'Stephen Levinson'
p864
aS'Hans Zimmer'
p865
aS'Roy Scheider'
p866
aS'David Zucker'
p867
aS'John R. Leonetti'
p868
aS'Joel Schumacher'
p869
aS'Scott K. Wallace'
p870
aS'Liza Chasin'
p871
aS'Donald E. Westlake'
p872
aS'Patsy Kensit'
p873
aS'Harold Gould'
p874
aS'Mary Ruth Clarke'
p875
aS'Raul Julia'
p876
aS'Jeffrey Jones'
p877
aS'Diane Keaton'
p878
aS'Boris Karloff'
p879
aS'Kate Cohen'
p880
aS'Betty Aberlin'
p881
aS'Ferris Webster'
p882
aS'Bill Murray'
p883
aS'Toshio Suzuki'
p884
aS'John Fortenberry'
p885
aS'Mervyn Warren'
p886
aS'Michael Green'
p887
aS'Adam Schroeder'
p888
aS'Dan Curtis'
p889
aS'Amy Poehler'
p890
aS'Paul Guay'
p891
aS'John Hamburg'
p892
aS'Ry\xc3\xbb Murakami'
p893
aS'Masato Hara'
p894
aS'Tangerine Dream'
p895
aS'Paul Schiff'
p896
aS'Thomas Keneally'
p897
aS'Elya Baskin'
p898
aS'Robert Greenhut'
p899
aS'Lucien Ballard'
p900
aS'Andrzej Bartkowiak'
p901
aS'Affonso Beato'
p902
aS'Roxanne Hart'
p903
aS'Murray Hamilton'
p904
aS'Simon Fields'
p905
aS'Neal Brennan'
p906
aS'Tracie Graham-Rice'
p907
aS'Sameer Sharma'
p908
aS'Frank Abagnale Jr.'
p909
aS'Hal Barwood'
p910
aS'Christian Halsey Solomon'
p911
aS'\xc3\x86neas MacKenzie'
p912
aS'George Cukor'
p913
aS'Reginald Gardiner'
p914
aS'Jane Darwell'
p915
aS'Vera Miles'
p916
aS'Ruby Dee'
p917
aS'Lili Taylor'
p918
aS'David Thewlis'
p919
aS'Patricia Neal'
p920
aS'Bunshi Katsura Vi'
p921
aS'Steve Koren'
p922
aS'Oscar Fraley'
p923
aS'Charles Strouse'
p924
aS'Shigeru Umebayashi'
p925
aS'Steve Beck'
p926
aS'Ezra Swerdlow'
p927
aS'Joseph Mascolo'
p928
aS'Shawn Lawrence Otto'
p929
aS'Max Ryan'
p930
aS'Greg Brooker'
p931
aS'Burr Steers'
p932
aS'Christopher Figg'
p933
aS'The Alloy Orchestra'
p934
aS'Ken Kaufman'
p935
aS'Robby M\xc3\xbcller'
p936
aS'John H. Williams'
p937
aS'Roger Corman'
p938
aS'Max Phipps'
p939
aS'Judi Dench'
p940
aS"Robert Ri'chard"
p941
aS'Hailee Steinfeld'
p942
aS'Rob Schmidt'
p943
aS'Harry Shearer'
p944
aS'Walt Mulconery'
p945
aS'Dan Hedaya'
p946
aS'Martin Kove'
p947
aS'Mariel Hemingway'
p948
aS'Jessica Alba'
p949
aS'Richard Roth'
p950
aS'Aaliyah'
p951
aS'Mark Addy'
p952
aS'Massy Tadjedin'
p953
aS'Betsy Baker'
p954
aS'Michelle Rodriguez'
p955
aS'Terry Camilleri'
p956
aS'David Tomlinson'
p957
aS'Goldie Hawn'
p958
aS'Shelly Johnson'
p959
aS'Antonio Trashorras'
p960
aS'Chris Boardman'
p961
aS'Raoul Coutard'
p962
aS'Fr\xc3\xa9d\xc3\xa9ric Diefenthal'
p963
aS'Miko Hughes'
p964
aS'Walter Newman'
p965
aS'Richard Piers Rayner'
p966
aS'Lowell Cunningham'
p967
aS'Bruce Cohen'
p968
aS'Ulla Ryghe'
p969
aS'Sessue Hayakawa'
p970
aS'Randy Feldman'
p971
aS'Tom Costain'
p972
aS'Norman Reedus'
p973
aS'Robert Rehme'
p974
aS'Richard Solomon'
p975
aS'Leonard Goldberg'
p976
aS'Peter Tolan'
p977
aS'Wesley Snipes'
p978
aS'Tom Skerritt'
p979
aS'Martin Sheen'
p980
aS'Gary Sinise'
p981
aS'Jeremy Davies'
p982
aS'Embeth Davidtz'
p983
aS'Brad Davis'
p984
aS'Andrew Davis'
p985
aS'Ossie Davis'
p986
aS'Judy Davis'
p987
aS'Warwick Davis'
p988
aS'John Lasseter'
p989
aS'Joseph Stefano'
p990
aS'Sherry Lansing'
p991
aS'Ali Larter'
p992
aS'Keith Samples'
p993
aS'Jun Kunimura'
p994
aS'Thelma Schoonmaker'
p995
aS'Rupert Wyatt'
p996
aS'Andy Lau'
p997
aS'Wai-Keung Lau'
p998
aS'Joshua Donen'
p999
aS'David A. Stewart'
p1000
aS'Rod Serling'
p1001
aS'Charles Randolph'
p1002
aS'Didier Kaminka'
p1003
aS'Xin Huo'
p1004
aS'John Mathieson'
p1005
aS'Monty Montgomery'
p1006
aS'Diane Drake'
p1007
aS'Bill Carraro'
p1008
aS'Raffaella De Laurentiis'
p1009
aS'Bruce Porter'
p1010
aS'George Clayton Johnson'
p1011
aS'Dale Launer'
p1012
aS'Takashige Ichise'
p1013
aS'Cliff Gorman'
p1014
aS'Thomas Meehan'
p1015
aS'Harry Guardino'
p1016
aS'Charles B. Griffith'
p1017
aS'George W. Bush'
p1018
aS'Yasmina Reza'
p1019
aS'Scott Mosier'
p1020
aS'Alain Godard'
p1021
aS'Wei Lu'
p1022
aS'Elisha Cuthbert'
p1023
aS'Catherine Ryan Hyde'
p1024
aS'DJ Pooh'
p1025
aS'Jocelyn Pook'
p1026
aS'Ray Wright'
p1027
aS'Bill Pankow'
p1028
aS'Holmes Osborne'
p1029
aS'Mark Burton'
p1030
aS'Thomas Mann'
p1031
aS'Eleanor Parker'
p1032
aS'Norman Jewison'
p1033
aS'Allan Kaufman'
p1034
aS'John L. Balderston'
p1035
aS'Chris Wedge'
p1036
aS'Richard Masur'
p1037
aS'Jessie Henderson'
p1038
aS'Jenno Topping'
p1039
aS'Brittany Snow'
p1040
aS'Sasha Harari'
p1041
aS'David Hoselton'
p1042
aS'Richard Rich'
p1043
aS'Nellee Hooper'
p1044
aS'Antony Acker'
p1045
aS'Hugh Dancy'
p1046
aS'John Debney'
p1047
aS'J.M. Barrie'
p1048
aS'Willis Goldbeck'
p1049
aS'Gary B. Kibbe'
p1050
aS'Peter Howitt'
p1051
aS'Jeffrey A. Mueller'
p1052
aS'Stanley Shapiro'
p1053
aS'William Castle'
p1054
aS'Catherine Hardwicke'
p1055
aS'Jessica Biel'
p1056
aS'Jason Biggs'
p1057
aS'Selma Blair'
p1058
aS'Scott Kalvert'
p1059
aS'David Kennedy'
p1060
aS'Vince Edwards'
p1061
aS'Sigurjon Sighvatsson'
p1062
aS'Lloyd Levin'
p1063
aS'Luciano Vincenzoni'
p1064
aS'Allen Garfield'
p1065
aS'Gilbert Taylor'
p1066
aS'Yul Brynner'
p1067
aS'Jerry Bruckheimer'
p1068
aS'Jeffrey Boam'
p1069
aS'James L. Brooks'
p1070
aS'Jim Brown'
p1071
aS'Bryan Brown'
p1072
aS'Jim Broadbent'
p1073
aS'Albert Brooks'
p1074
aS'Josh Brolin'
p1075
aS'St\xc3\xa9phane Cabel'
p1076
aS'Salvador Allende'
p1077
aS'Thomas Moore'
p1078
aS'Dolph Lundgren'
p1079
aS'George Lucas'
p1080
aS'Madonna'
p1081
aS'David Lynch'
p1082
aS'Kevin McKidd'
p1083
aS'Jennifer Lopez'
p1084
aS'Alain Juteau'
p1085
aS'Shelley Winters'
p1086
aS'Lynn Harris'
p1087
aS'JoBeth Williams'
p1088
aS'Vanessa Williams'
p1089
aS'Rita Wilson'
p1090
aS'Thomas F. Wilson'
p1091
aS'Henry Winkler'
p1092
aS'Oswald Morris'
p1093
aS'Ira H. Morgan'
p1094
aS'Sam Froelich'
p1095
aS'Don Gordon'
p1096
aS'Douglas Milsome'
p1097
aS'Harry Myers'
p1098
aS'Doug Jones'
p1099
aS'Timothy Hutton'
p1100
aS'William Hurt'
p1101
aS'Matheus Nachtergaele'
p1102
aS'Gabriel Byrne'
p1103
aS'Gaby Hoffmann'
p1104
aS'Philip Seymour Hoffman'
p1105
aS'John Hurt'
p1106
aS'Holly Hunter'
p1107
aS'John Hughes'
p1108
aS'Kim Cattrall'
p1109
aS'C. Jay Cox'
p1110
aS'Peter Griffiths'
p1111
aS'Kirk Douglas'
p1112
aS'Jack Palance'
p1113
aS'Michael Palin'
p1114
aS'Alan J. Pakula'
p1115
aS'Bobby Farrelly'
p1116
aS'Jerry Orbach'
p1117
aS'Kyra Schon'
p1118
aS'Hugo Weaving'
p1119
aS'Allen Daviau'
p1120
aS'Peter Ackerman'
p1121
aS'David Wagner'
p1122
aS'Nick Stahl'
p1123
aS'Walter Connolly'
p1124
aS'Dashiell Hammett'
p1125
aS'Jack B. Sowards'
p1126
aS'Xavier Gens'
p1127
aS'Tokiko Kat\xc3\xb4'
p1128
aS'Kasi Lemmons'
p1129
aS'David Benullo'
p1130
aS'Stanley Cortez'
p1131
aS'Otto Wernicke'
p1132
aS'Howard Hawks'
p1133
aS'Nigel Hawthorne'
p1134
aS'Hans Burmann'
p1135
aS'Debbie Harry'
p1136
aS'Richard Harris'
p1137
aS'Josh Hartnett'
p1138
aS'Sean McKittrick'
p1139
aS'Josh Evans'
p1140
aS'Stephen H. Burum'
p1141
aS'Mark Dindal'
p1142
aS'Dian Bachar'
p1143
aS'James Jones'
p1144
aS'Jonathan Lemkin'
p1145
aS'Colin Higgins'
p1146
aS'Clare Higgins'
p1147
aS'Gary Barber'
p1148
aS'Joe Ranft'
p1149
aS'Jean Heywood'
p1150
aS'T.E. Lawrence'
p1151
aS'Roy Dotrice'
p1152
aS'Andrew Panay'
p1153
aS'Teresa Tucker-Davies'
p1154
aS'Jon Jashni'
p1155
aS'Fabio Cianchetti'
p1156
aS'Julie Richardson'
p1157
aS'Bob Ziembicki'
p1158
aS'Charles Minsky'
p1159
aS'Alex Parker'
p1160
aS'Michael Aguilar'
p1161
aS'Roberto Schaefer'
p1162
aS'Kristen Cloke'
p1163
aS'Yutaka Maseba'
p1164
aS'Xander Berkeley'
p1165
aS'William Kelley'
p1166
aS'Mikis Theodorakis'
p1167
aS'Colin Friels'
p1168
aS'Margot Robbie'
p1169
aS'Lari White'
p1170
aS'Frank Mancuso Jr.'
p1171
aS'Pierre Morel'
p1172
aS'Howard Ashman'
p1173
aS'Carey Hayes'
p1174
aS'Mireille Soria'
p1175
aS'James Dickey'
p1176
aS'Romaric Laurence'
p1177
aS'David Moritz'
p1178
aS'Bruce Broughton'
p1179
aS'John Carter'
p1180
aS'Charles Newirth'
p1181
aS'Brad Silberling'
p1182
aS'Chris Bender'
p1183
aS'Charles Webb'
p1184
aS'Adam Fields'
p1185
aS'Walter Huston'
p1186
aS'Dennis Lehane'
p1187
aS'Jos\xc3\xa9 Mar\xc3\xada de Tavira'
p1188
aS'Paul Mayeda Berges'
p1189
aS'Susan E. Morse'
p1190
aS'Mike Gabriel'
p1191
aS'Hughes Winborne'
p1192
aS'Zachary Levi'
p1193
aS'Naaman Marshall'
p1194
aS'Hubertus Bengsch'
p1195
aS'James Lassiter'
p1196
aS'Christine Hargreaves'
p1197
aS'Barry Morrow'
p1198
aS'Freddie Prinze Jr.'
p1199
aS'Monica Potter'
p1200
aS'Fran\xc3\xa7ois G\xc3\xa9digier'
p1201
aS'Michael Goldberg'
p1202
aS'Dakota Fanning'
p1203
aS'Patrick Swayze'
p1204
aS'Michael Ballhaus'
p1205
aS'Martin Balsam'
p1206
aS'Anne Bancroft'
p1207
aS'Tami Stronach'
p1208
aS'Donald Sutherland'
p1209
aS'Kiefer Sutherland'
p1210
aS'James L. Carter'
p1211
aS'Javier Bardem'
p1212
aS'Emma Thompson'
p1213
aS'Jeanne Bates'
p1214
aS'Steve Tisch'
p1215
aS'Bruce Dern'
p1216
aS'Mickey Liddell'
p1217
aS'Nicholle Tom'
p1218
aS'Brian Dennehy'
p1219
aS'Maura Tierney'
p1220
aS'Patrick Dempsey'
p1221
aS'Ted Demme'
p1222
aS'Zack Norman'
p1223
aS'George Lutz'
p1224
aS'Daria Nicolodi'
p1225
aS'Joseph Pilato'
p1226
aS'Andy Serkis'
p1227
aS'Steven Poster'
p1228
aS'Davis Grubb'
p1229
aS'Kristen Miller'
p1230
aS'David Michener'
p1231
aS'Julie Bob Lombardi'
p1232
aS'Truman Capote'
p1233
aS'Tom Helmore'
p1234
aS'Dylan Tichenor'
p1235
aS'Christine Cavanaugh'
p1236
aS'Diana Kent'
p1237
aS'Gustav Hasford'
p1238
aS'Marc Caro'
p1239
aS'Hugh Keays-Byrne'
p1240
aS'Tony Lombardo'
p1241
aS'Lois Duncan'
p1242
aS'Sol Yurick'
p1243
aS'Cotton Warburton'
p1244
aS'Paul Gregory'
p1245
aS'Steve McQueen'
p1246
aS'Michael Colleary'
p1247
aS'Kevin Conway'
p1248
aS'George Macready'
p1249
aS'Shea Fowler'
p1250
aS'Catherine Martin'
p1251
aS'Annie Corley'
p1252
aS'Min Hun Fung'
p1253
aS'Michael Schiffer'
p1254
aS'Wotan Wilke M\xc3\xb6hring'
p1255
aS'Maurine Dallas Watkins'
p1256
aS'Mitchell Kapner'
p1257
aS'Mark Ciardi'
p1258
aS'Larry Cohen'
p1259
aS'Stanley R. Jaffe'
p1260
aS'Steven-Charles Jaffe'
p1261
aS'Robert Chartoff'
p1262
aS'John Dall'
p1263
aS'James V. Hart'
p1264
aS'Oliver Bokelberg'
p1265
aS'Craig McKay'
p1266
aS'Thomas Bo Larsen'
p1267
aS'Jon Bokenkamp'
p1268
aS'Duncan Henderson'
p1269
aS'Ying-Wah Wong'
p1270
aS'Peter S. Larkin'
p1271
aS'Joanne Harris'
p1272
aS'Hal Dresner'
p1273
aS'John Ridgely'
p1274
aS'Bryce Zabel'
p1275
aS'Peter Burchard'
p1276
aS'Irma P. Hall'
p1277
aS'George Axelrod'
p1278
aS'Irving Axelrad'
p1279
aS'Lorne Cameron'
p1280
aS'Linda Kozlowski'
p1281
aS'John McGiver'
p1282
aS'Andy Paterson'
p1283
aS'Hank Mann'
p1284
aS'Tab Murphy'
p1285
aS'Michael Angarano'
p1286
aS'Thomas Vinterberg'
p1287
aS'Gene Roddenberry'
p1288
aS'Kimio Kataoka'
p1289
aS'Nelson Riddle'
p1290
aS'Carmen Electra'
p1291
aS'Mark Rosenthal'
p1292
aS'Peter Shaffer'
p1293
aS'Chad Hayes'
p1294
aS'Noah Emmerich'
p1295
aS'John Pasquin'
p1296
aS'Peter Segal'
p1297
aS'David Rennie'
p1298
aS'Frank A. Cappello'
p1299
aS'Nobuaki Minegishi'
p1300
aS'Daniel Waters'
p1301
aS'David Holmes'
p1302
aS'Kristen Stewart'
p1303
aS'Danny Lloyd'
p1304
aS'Michael G. Wilson'
p1305
aS'Richard Kelly'
p1306
aS'Joanne Samuel'
p1307
aS'Paul Brickhill'
p1308
aS'Peter Hedges'
p1309
aS'Aamir Khan'
p1310
aS'Vince McKewin'
p1311
aS'Dan Mudford'
p1312
aS'Peter S. Davis'
p1313
aS'Colleen Halsey'
p1314
aS'Ruggero Maccari'
p1315
aS'Anna Faris'
p1316
aS'David H. Steinberg'
p1317
aS'John Seale'
p1318
aS'Rachel Weisz'
p1319
aS'Fred Schuler'
p1320
aS'Peter Weir'
p1321
aS'Damon Wayans'
p1322
aS'Carl Weathers'
p1323
aS'Emily Watson'
p1324
aS'David Warner'
p1325
aS'Tony Gayton'
p1326
aS'Joe Gayton'
p1327
aS'David Bowie'
p1328
aS'Ernest Borgnine'
p1329
aS'Michael Cunningham'
p1330
aS'Brian Blessed'
p1331
aS'Mel Blanc'
p1332
aS'Linda Blair'
p1333
aS'Honor Blackman'
p1334
aS'Thora Birch'
p1335
aS'Juliette Binoche'
p1336
aS'Jeff Arch'
p1337
aS'Katsuhiro \xc3\x94tomo'
p1338
aS'Ji-tae Yu'
p1339
aS'Jay C. Flippen'
p1340
aS'Thomas M. Vogt'
p1341
aS'David Shire'
p1342
aS'Ronald Roose'
p1343
aS'Don DaGradi'
p1344
aS'David Emge'
p1345
aS'Oxide Chun Pang'
p1346
aS'Shane Carruth'
p1347
aS'John Peverall'
p1348
aS'Tsunehiko Kamij\xc3\xb4'
p1349
aS'Jim Thompson'
p1350
aS'Matt Greenhalgh'
p1351
aS'Paul Ardaji'
p1352
aS'Parminder Nagra'
p1353
aS'John Grisham'
p1354
aS'Charles Grodin'
p1355
aS'Christopher Guest'
p1356
aS'Carla Gugino'
p1357
aS'Fred Gwynne'
p1358
aS'Lukas Haas'
p1359
aS'Peter Deming'
p1360
aS'Tonino Delli Colli'
p1361
aS'Anthony Michael Hall'
p1362
aS'Herbert Knaup'
p1363
aS'Matt Drake'
p1364
aS'Dylan Sellers'
p1365
aS'Mark Korven'
p1366
aS'Kimberly Ray'
p1367
aS'Michael France'
p1368
aS'James Badge Dale'
p1369
aS'James Remar'
p1370
aS'Don Miller'
p1371
aS'Luke Wilson'
p1372
aS'Ben Roberts'
p1373
aS'Penelope Allen'
p1374
aS'Owen Wilson'
p1375
aS'Lincoln Kirstein'
p1376
aS'Gerald Fried'
p1377
aS'Arthur Freed'
p1378
aS'John Rogers'
p1379
aS'Jean-Claude Van Damme'
p1380
aS'Richard Chew'
p1381
aS'Miranda Richardson'
p1382
aS'Jim Harrison'
p1383
aS'Topol'
p1384
aS'Jo-yun Hwang'
p1385
aS'Stephen Warbeck'
p1386
aS'Jeff Tremaine'
p1387
aS'Billy Hayes'
p1388
aS'Richard Rothstein'
p1389
aS'Mark Bomback'
p1390
aS'Mort Briskin'
p1391
aS'Randal Kleiser'
p1392
aS'Donald Halliday'
p1393
aS'Jonathan Daniel Brown'
p1394
aS'Gurinder Chadha'
p1395
aS'Duncan Kennedy'
p1396
aS'Martin Hancock'
p1397
aS'Lisa Boyle'
p1398
aS'Chris Sanders'
p1399
aS'Shannon Elizabeth'
p1400
aS'William Sylvester'
p1401
aS'Jessica Harper'
p1402
aS'Michael Chapman'
p1403
aS'Matthew Chapman'
p1404
aS'Justin Theroux'
p1405
aS'David Pirie'
p1406
aS'Tetsu Sawaki'
p1407
aS'Julia Sawalha'
p1408
aS'Peter Biziou'
p1409
aS'Emilio Echevarr\xc3\xada'
p1410
aS'Ryan McCluskey'
p1411
aS'Larry Smith'
p1412
aS'Sandy Veneziano'
p1413
aS'Robert LoCash'
p1414
aS'Daniel P. Mannix'
p1415
aS'W.D. Richter'
p1416
aS'William Davies'
p1417
aS'Cynthia Hargrave'
p1418
aS'Marisa Paredes'
p1419
aS'Shane Salerno'
p1420
aS'George Miller'
p1421
aS'Mitch Glazer'
p1422
aS'Salvatore Totino'
p1423
aS'Lisa Spoonauer'
p1424
aS'Jonathan Glazer'
p1425
aS'Michael Penn'
p1426
aS'Piper Perabo'
p1427
aS'Jayne Atkinson'
p1428
aS'Kimberly Peirce'
p1429
aS'John Robie'
p1430
aS'Michael Herr'
p1431
aS'Harris Goldberg'
p1432
aS'Wendy Crewson'
p1433
aS'Harry Bates'
p1434
aS'John Badham'
p1435
aS'Angelo Badalamenti'
p1436
aS'Burt Bacharach'
p1437
aS'Karen Blixen'
p1438
aS'Paul D. Zimmerman'
p1439
aS'Stuart Baird'
p1440
aS'Ed Solomon'
p1441
aS'Fernando Rey'
p1442
aS'Patch Adams'
p1443
aS'Alan Hume'
p1444
aS'David Willis'
p1445
aS'Carlos Ezquerra'
p1446
aS'Maynard Eziashi'
p1447
aS'Chuck Pfarrer'
p1448
aS'Richard Perello'
p1449
aS'Carl Miller'
p1450
aS'Daniel F. Galouye'
p1451
aS'Nira Park'
p1452
aS'Taye Diggs'
p1453
aS'Vin Diesel'
p1454
aS'Klaus Badelt'
p1455
aS'Snoop Dogg'
p1456
aS'Van Ling'
p1457
aS'Faye Dunaway'
p1458
aS'Franco Arcalli'
p1459
aS'Olympia Dukakis'
p1460
aS'Stephen Dorff'
p1461
aS'James Doohan'
p1462
aS'Brad Lewis'
p1463
aS'Illeana Douglas'
p1464
aS'Rumi Hiiragi'
p1465
aS'Nicholas Griffin'
p1466
aS'John DeLuca'
p1467
aS'Matthew Macfadyen'
p1468
aS'Michael D. Weiss'
p1469
aS'Patrick Warburton'
p1470
aS'Alberto Iglesias'
p1471
aS'Glenn Ficarra'
p1472
aS'Steve Kloves'
p1473
aS'Martin Jurow'
p1474
aS'Pete Docter'
p1475
aS'Greg Germann'
p1476
aS'Prachya Pinkaew'
p1477
aS'F.X. Toole'
p1478
aS'Daniel Wallace'
p1479
aS'Barbara Luddy'
p1480
aS'Neil Davidge'
p1481
aS'Rob Perez'
p1482
aS'Daniel Mandell'
p1483
aS'Rachel McAdams'
p1484
aS'Rick Berman'
p1485
aS'Jason Blum'
p1486
aS'Amin Hajee'
p1487
aS'Vance Gerry'
p1488
aS'J.F. Lawton'
p1489
aS'Brady Corbet'
p1490
aS'Peter Hewitt'
p1491
aS'S.E. Hinton'
p1492
aS'Jack Carson'
p1493
aS'Tom Murray'
p1494
aS'Rafael Moreu'
p1495
aS'Andrew Eaton'
p1496
aS'E.M. Nathanson'
p1497
aS'Kate Ashfield'
p1498
aS'Bridget Johnson'
p1499
aS'Warren Skaaren'
p1500
aS'Jeff Nathanson'
p1501
aS'Elmo Williams'
p1502
aS'Judith Rivi\xc3\xa8re Kawa'
p1503
aS'Jesse Bradford'
p1504
aS'Luke Ciarrocchi'
p1505
aS'William Snape'
p1506
aS'S\xc3\xb4jir\xc3\xb4 Motoki'
p1507
aS'Scott Aukerman'
p1508
aS'Joseph Cali'
p1509
aS'Scott Stuber'
p1510
aS'Christopher Wilkinson'
p1511
aS'Shahkrit Yamnarm'
p1512
aS'Tobias Karlsson'
p1513
aS'Gladys George'
p1514
aS'Daniel Boulanger'
p1515
aS"Carr D'Angelo"
p1516
aS'Vincent Ward'
p1517
aS'Jane Rosenthal'
p1518
aS'Charles Lederer'
p1519
aS'Michael Hackett'
p1520
aS'Lola Due\xc3\xb1as'
p1521
aS'John Shirley'
p1522
aS'Arnold Vosloo'
p1523
aS'Fred Fuchs'
p1524
aS'Michael Rennie'
p1525
aS'Lee Daniels'
p1526
aS'Ric Kidney'
p1527
aS'Saif Ali Khan'
p1528
aS'Adam Jeremy Williams'
p1529
aS'Don Bluth'
p1530
aS'Gianluigi Braschi'
p1531
aS'Robert Nelson Jacobs'
p1532
aS'Jeffrey Silver'
p1533
aS'Kimberly Stringer'
p1534
aS'Leslie Holleran'
p1535
aS'Philippe Rombi'
p1536
aS'Richard Jenkins'
p1537
aS"Donald O'Connor"
p1538
aS'James M. Muro'
p1539
aS'Scott Rudin'
p1540
aS'David Duchovny'
p1541
aS'Michael Douglas'
p1542
aS'Erika Eleniak'
p1543
aS'Clint Eastwood'
p1544
aS'Cary Elwes'
p1545
aS'Colin Firth'
p1546
aS'Ralph Fiennes'
p1547
aS'Jodie Foster'
p1548
aS'Harrison Ford'
p1549
aS'Peter Stebbings'
p1550
aS'Fernando Tielve'
p1551
aS'Michael Cimino'
p1552
aS'Pamela Abdy'
p1553
aS'Rita M. Fink'
p1554
aS'Mark R. Harris'
p1555
aS'Marc Lawrence'
p1556
aS'Gus Van Sant'
p1557
aS'Jim Varney'
p1558
aS'Reginald VelJohnson'
p1559
aS'Juliane K\xc3\xb6hler'
p1560
aS'Lee Van Cleef'
p1561
aS'Dick Van Dyke'
p1562
aS'Anna Chlumsky'
p1563
aS'Harold Rosson'
p1564
aS'Nigel Wooll'
p1565
aS'William Goodrum'
p1566
aS'Arnon Milchan'
p1567
aS'Jennifer Lien'
p1568
aS'Juliette Lewis'
p1569
aS'G\xc3\xa9rard Depardieu'
p1570
aS'Catherine Deneuve'
p1571
aS'Brian De Palma'
p1572
aS'Jennifer Jason Leigh'
p1573
aS'John Leguizamo'
p1574
aS'Spike Lee'
p1575
aS'Matt Dillon'
p1576
aS'Laura Dern'
p1577
aS'Matthew Lillard'
p1578
aS'Louis Eppolito'
p1579
aS'Stuart Zicherman'
p1580
aS'Trevor Horn'
p1581
aS'Samuel Armstrong'
p1582
aS'Rafael Yglesias'
p1583
aS'Andy Bienen'
p1584
aS'Jay Wolpert'
p1585
aS'Stephane Sperry'
p1586
aS'William A. Sawyer'
p1587
aS'Dale Wasserman'
p1588
aS'Gabrielle Union'
p1589
aS'Allison Anders'
p1590
aS'Robert M. Stevens'
p1591
aS'Michael Goldenberg'
p1592
aS'Martha Vickers'
p1593
aS'Marc Norman'
p1594
aS'Carlo Siliotto'
p1595
aS'Stephen Hauser'
p1596
aS'Katharine Towne'
p1597
aS'James Algar'
p1598
aS'Paddy Chayefsky'
p1599
aS'Michael Ellis'
p1600
aS'Dae-han Ji'
p1601
aS'Myles Connolly'
p1602
aS'C. Thomas Howell'
p1603
aS'Bob Hoskins'
p1604
aS'Whitney Houston'
p1605
aS'Tobe Hooper'
p1606
aS'Ernie Hudson'
p1607
aS'Jeremy Foley'
p1608
aS'Joseph Oriolo'
p1609
aS'L. Levin'
p1610
aS'Anita Briem'
p1611
aS'Emile Ardolino'
p1612
aS'Gabriela Oltean'
p1613
aS'Eugen Sch\xc3\xbcfftan'
p1614
aS'Robert Daley'
p1615
aS'Jon Abrahams'
p1616
aS'Janet Yang'
p1617
aS'Robin Vidgeon'
p1618
aS'Richard Maibaum'
p1619
aS'Jeannot Szwarc'
p1620
aS'James Rebhorn'
p1621
aS'Bill Lee'
p1622
aS'Robert Ben Garant'
p1623
aS'Robert Pattinson'
p1624
aS'Anatoli Davydov'
p1625
aS'Erdman Penner'
p1626
aS'Gerry Conway'
p1627
aS'Jason London'
p1628
aS'Charles Bishop'
p1629
aS'Jeremy London'
p1630
aS'David Dodge'
p1631
aS'Rupert Wainwright'
p1632
aS'Farley Granger'
p1633
aS'Sh\xc3\xbbichir\xc3\xb4 Moriyama'
p1634
aS'Malcolm Arnold'
p1635
aS'Whit Masterson'
p1636
aS'Bill Condon'
p1637
aS'Michael Besman'
p1638
aS'Helena Bonham Carter'
p1639
aS'Imogene Coca'
p1640
aS'Danny Cannon'
p1641
aS'Robert Dalva'
p1642
aS'Eddie Smith'
p1643
aS'Terry Bedford'
p1644
aS'Stephen Peters'
p1645
aS'Shirley Walker'
p1646
aS'Jeff Reno'
p1647
aS'Paul Trijbits'
p1648
aS'Eijir\xc3\xb4 T\xc3\xb4no'
p1649
aS'Daniel Clowes'
p1650
aS'Rory Cochrane'
p1651
aS'Lee Unkrich'
p1652
aS'Randall Jahnson'
p1653
aS'James McCausland'
p1654
aS'Lynn Ferguson'
p1655
aS'Moira Buffini'
p1656
aS'Peter Cook'
p1657
aS'Phil Alden Robinson'
p1658
aS'James Vanderbilt'
p1659
aS'Paul Dehn'
p1660
aS'Charles Gordon'
p1661
aS'Ralph Burns'
p1662
aS'George Bruns'
p1663
aS'Sheldon Lettich'
p1664
aS'Dan Mazer'
p1665
aS'Tina Turner'
p1666
aS'Claudine Auger'
p1667
aS'Jane Austen'
p1668
aS'Armand Assante'
p1669
aS'Mary Astor'
p1670
aS'Christopher Atkins'
p1671
aS'Sacha Gervasi'
p1672
aS'Mel Friedman'
p1673
aS'Paula Patton'
p1674
aS'Craig Perry'
p1675
aS'Lana Wachowski'
p1676
aS'Lilly Wachowski'
p1677
aS'Audrey Tautou'
p1678
aS'Todd Field'
p1679
aS'Drew Dowdle'
p1680
aS'Douglas Day Stewart'
p1681
aS'Pen\xc3\xa9lope Cruz'
p1682
aS'Tim Daly'
p1683
aS'Gregg Araki'
p1684
aS'Christina Applegate'
p1685
aS'Ryuichi Sakamoto'
p1686
aS'Aaron Eckhart'
p1687
aS'Christopher Eccleston'
p1688
aS'Buddy Ebsen'
p1689
aS'Christopher Hampton'
p1690
aS'Blake Edwards'
p1691
aS'Veronika Jenet'
p1692
aS'Anita Ekberg'
p1693
aS'Leslie Mann'
p1694
aS'Lawrence Gordon'
p1695
aS'Mark Mancina'
p1696
aS'Harry Manfredini'
p1697
aS'Johnny Mandel'
p1698
aS'Brian May'
p1699
aS'Robert Mulligan'
p1700
aS'I.A.L. Diamond'
p1701
aS'Hubert Selby Jr.'
p1702
aS'Mark Damon'
p1703
aS'Cathy Konrad'
p1704
aS'Denny Martin Flinn'
p1705
aS'Clive Owen'
p1706
aS'Emily Blunt'
p1707
aS'Jack N. Green'
p1708
aS'Christine Vachon'
p1709
aS'Robert Wise'
p1710
aS'Barbara Boyle'
p1711
aS'James Wong'
p1712
aS'Ernest Troost'
p1713
aS'Brie Larson'
p1714
aS'Eleanor Audley'
p1715
aS'John Ashton'
p1716
aS'William Ross'
p1717
aS'Neil Gaiman'
p1718
aS'Joseph Conrad'
p1719
aS'Jon Cohen'
p1720
aS'Anna Friel'
p1721
aS'Masayuki Mori'
p1722
aS'Joel Cohen'
p1723
aS'Frank Coraci'
p1724
aS'Antonio Cora'
p1725
aS'Marc Handler'
p1726
aS'David Cross'
p1727
aS'Kevin J. Messick'
p1728
aS'T.J. Lowther'
p1729
aS'Troy Duffy'
p1730
aS'Terry Rawlings'
p1731
aS'Lori Cardille'
p1732
aS'Maria von Trapp'
p1733
aS'Wood Harris'
p1734
aS'Tiny Sandford'
p1735
aS'Alexa PenaVega'
p1736
aS'Dick King-Smith'
p1737
aS'Shah Rukh Khan'
p1738
aS'Graham King'
p1739
aS'Jordan Ladd'
p1740
aS'Leah Ayres'
p1741
aS'Patricia Charbonnet'
p1742
aS'Joss Whedon'
p1743
aS'Elie Samaha'
p1744
aS"Frances O'Connor"
p1745
aS'Mark L. Lester'
p1746
aS'Elizabeth Hurley'
p1747
aS'Helen Hunt'
p1748
aS'Ron Howard'
p1749
aS'Anthony Hopkins'
p1750
aS'Dustin Hoffman'
p1751
aS'Anne Heche'
p1752
aS'Salma Hayek'
p1753
aS'Ethan Hawke'
p1754
aS'Demetra J. MacBride'
p1755
aS'Adrienne Fazan'
p1756
aS'Tommy Lee Jones'
p1757
aS'Samuel L. Jackson'
p1758
aS'Chi McBride'
p1759
aS'Chris Van Allsburg'
p1760
aS'Nancy Kyes'
p1761
aS'Jake Weber'
p1762
aS'Aleksandr Knyazhinskiy'
p1763
aS'Ingrid Bergman'
p1764
aS'Donald Peterman'
p1765
aS'Christine Taylor'
p1766
aS'Andrew Stanton'
p1767
aS'Alexander Ignon'
p1768
aS'Jay Ward'
p1769
aS"Dan O'Bannon"
p1770
aS'Marshall Herskovitz'
p1771
aS'Terry Hayes'
p1772
aS'Berkely Mather'
p1773
aS'Robert Schooley'
p1774
aS'Roger Deakins'
p1775
aS'Victor Sj\xc3\xb6str\xc3\xb6m'
p1776
aS'Pieter Jan Brugge'
p1777
aS'Kevin Feige'
p1778
aS'Don Jakoby'
p1779
aS'Tim Suhrstedt'
p1780
aS'Danny Huston'
p1781
aS'Julian Sands'
p1782
aS'Chris Sarandon'
p1783
aS'George Sanders'
p1784
aS'Maitland Ward'
p1785
aS'Eva Marie Saint'
p1786
aS'Donnie Wahlberg'
p1787
aS'Geoffrey Rush'
p1788
aS'Terry Rossio'
p1789
aS'John Savage'
p1790
aS'Dash Mihok'
p1791
aS'Annie Marter'
p1792
aS'Joan Cusack'
p1793
aS'Tony Curtis'
p1794
aS'David Cronenberg'
p1795
aS'James Cromwell'
p1796
aS'Michael Crichton'
p1797
aS'Tim Curry'
p1798
aS'Macaulay Culkin'
p1799
aS'Billy Crystal'
p1800
aS'Denise Crosby'
p1801
aS'Ulrich Tukur'
p1802
aS'Jennifer Love Hewitt'
p1803
aS'Gregg Henry'
p1804
aS'Yaphet Kotto'
p1805
aS'Michael Levy'
p1806
aS'Wayne Knight'
p1807
aS'Katherine Helmond'
p1808
aS'Kris Kristofferson'
p1809
aS'Lisa Kudrow'
p1810
aS'J.J. Abrams'
p1811
aS'Robert James Waller'
p1812
aS'Tom Mankiewicz'
p1813
aS'Bruce Jay Friedman'
p1814
aS'Michael Robert Johnson'
p1815
aS'Keith Walker'
p1816
aS'Herman J. Mankiewicz'
p1817
aS'Andrew W. Marlowe'
p1818
aS'David Aaron Cohen'
p1819
aS'Dieter Geissler'
p1820
aS'Michael McCullers'
p1821
aS'Ron Kurz'
p1822
aS'Tony Bill'
p1823
aS'Johnston McCulley'
p1824
aS'Bill Kelly'
p1825
aS'Craig Storper'
p1826
aS'Michael Rooker'
p1827
aS'Dana Ivey'
p1828
aS'Manuela Gourary'
p1829
aS'Brian Probyn'
p1830
aS'Alex D. Linz'
p1831
aS'Jeffrey L. Kimball'
p1832
aS'Thomas De Quincey'
p1833
aS'David T. Friendly'
p1834
aS'Stanislaw Lem'
p1835
aS'Roy Conli'
p1836
aS'Josh Hutcherson'
p1837
aS'J.H. Ingraham'
p1838
aS'Ford Beebe Jr.'
p1839
aS"Mark O'Donnell"
p1840
aS'Mark Roybal'
p1841
aS'Rupert Gregson-Williams'
p1842
aS'Chris Gerolmo'
p1843
aS'Seamus McGarvey'
p1844
aS'Jerusha Hess'
p1845
aS'Gustavo Santaolalla'
p1846
aS'Lucy Russell'
p1847
aS'John W. Corso'
p1848
aS'Pawel Edelman'
p1849
aS'Lake Bell'
p1850
aS'Jeremy Passmore'
p1851
aS'Alan Pasqua'
p1852
aS'Dennis Dun'
p1853
aS"Shin'ya Kawai"
p1854
aS'Trey Callaway'
p1855
aS'Charles Evans Jr.'
p1856
aS'Marilyn Ghigliotti'
p1857
aS'Doug Liman'
p1858
aS'Sue Lyon'
p1859
aS'Akiva Goldsman'
p1860
aS'David Eigenberg'
p1861
aS'Michael Hertzberg'
p1862
aS'Baptiste Glaymann'
p1863
aS'Anand Tucker'
p1864
aS'Brian Levant'
p1865
aS'Jacinda Barrett'
p1866
aS'John Sturges'
p1867
aS'Donna Murphy'
p1868
aS'Peter Locke'
p1869
aS'Stephen Young'
p1870
aS'Damian Shannon'
p1871
aS'Mark Swift'
p1872
aS'Damian Lewis'
p1873
aS'Bibo Bergeron'
p1874
aS'Kirsten Smith'
p1875
aS'Michael Donovan'
p1876
aS'Benjamin Weir'
p1877
aS'Smit Sheth'
p1878
aS'Hideo Nakata'
p1879
aS'Susannah Grant'
p1880
aS'Victor Simpkins'
p1881
aS'Charles K. Feldman'
p1882
aS'Don Hahn'
p1883
aS'Matthew Libatique'
p1884
aS'Ted Elliott'
p1885
aS'John Madden'
p1886
aS'Alex Haw'
p1887
aS'Elizabeth Banks'
p1888
aS'Jon Amiel'
p1889
aS'Judith Anderson'
p1890
aS'Paul Thomas Anderson'
p1891
aS'Sandor Stern'
p1892
aS'Harold Jack Bloom'
p1893
aS'Murray Milne'
p1894
aS'Clark Johnson'
p1895
aS'Oswald Hafenrichter'
p1896
aS'Sebastian Gutierrez'
p1897
aS'Mikael H\xc3\xa5fstr\xc3\xb6m'
p1898
aS'Clive Cussler'
p1899
aS'Peter Frankfurt'
p1900
aS'Judy Parfitt'
p1901
aS'David Parfitt'
p1902
aS'Tsutomu Tatsumi'
p1903
aS'Garth Jennings'
p1904
aS'Craig Wasson'
p1905
aS'Ilene Woods'
p1906
aS'Peter Savage'
p1907
aS'Evan Rachel Wood'
p1908
aS'William Pittenger'
p1909
aS'Earl W. Wallace'
p1910
aS'Dale De La Torre'
p1911
aS'Marc Behm'
p1912
aS'Daniel L. Fapp'
p1913
aS'Don E. FauntLeRoy'
p1914
aS'Gunnar Fischer'
p1915
aS'Robert Fraisse'
p1916
aS'Harry Grey'
p1917
aS'Peta Wilson'
p1918
aS'Puyi'
p1919
aS'Josef Sommer'
p1920
aS'William Green'
p1921
aS'Stanley R. Zupnik'
p1922
aS'Michael Vartan'
p1923
aS'Karl J\xc3\xbal\xc3\xadusson'
p1924
aS'Regina Hall'
p1925
aS'Teddy Castellucci'
p1926
aS'Marc Conrad'
p1927
aS'Anatoliy Solonitsyn'
p1928
aS'Peter Abrams'
p1929
aS'Mark Irwin'
p1930
aS'Deborah Curtis'
p1931
aS'Rosario Dawson'
p1932
aS'Anthony Peckham'
p1933
aS'Bob Degus'
p1934
aS'Marilyn Eastman'
p1935
aS'Vibeke Windel\xc3\xb8v'
p1936
aS'Karey Kirkpatrick'
p1937
aS'Beyonc\xc3\xa9 Knowles'
p1938
aS'Fridrikh Gorenshteyn'
p1939
aS'Waldo Salt'
p1940
aS'Rob Edwards'
p1941
aS'Lawrence Lasker'
p1942
aS'Alex Lasker'
p1943
aS'Dante Ferretti'
p1944
aS'Massimo Morante'
p1945
aS'Jim Booth'
p1946
aS'Burnett Guffey'
p1947
aS'Nancy Olson'
p1948
aS'Wes Anderson'
p1949
aS'Alwin H. K\xc3\xbcchler'
p1950
aS'John Watson'
p1951
aS'Tracey Trench'
p1952
aS'Louis DiGiaimo'
p1953
aS'Arthur P. Schmidt'
p1954
aS'Ennio Flaiano'
p1955
aS'Gerry Robert Byrne'
p1956
aS'Norman Steinberg'
p1957
aS'J\xc3\xbcri J\xc3\xa4rvet'
p1958
aS'Rogier Stoffers'
p1959
aS'Michael Grais'
p1960
aS'Alisa Freyndlikh'
p1961
aS'Alan Ladd Jr.'
p1962
aS'Leslie Newman'
p1963
aS'Neal H. Moritz'
p1964
aS'Charles Perrault'
p1965
aS'Arthur Hornblow Jr.'
p1966
aS'G\xc3\xbcnter Rohrbach'
p1967
aS'Yasmine Bleeth'
p1968
aS'Luc Besson'
p1969
aS"James D'Arcy"
p1970
aS'Adrienne Barbeau'
p1971
aS'Antonio Banderas'
p1972
aS'Kim Basinger'
p1973
aS'Drew Barrymore'
p1974
aS'Dan Aykroyd'
p1975
aS'Rowan Atkinson'
p1976
aS'Fairuza Balk'
p1977
aS'Kevin Bacon'
p1978
aS'Rosalind Wiseman'
p1979
aS'Harland Williams'
p1980
aS'Victor Hammer'
p1981
aS'Alan Trustman'
p1982
aS'Todd Komarnicki'
p1983
aS'Shawn Doyle'
p1984
aS'Mark Burg'
p1985
aS'Scott Kroopf'
p1986
aS'Chris Weitz'
p1987
aS'Paul Weitz'
p1988
aS'Lawrence Kasdan'
p1989
aS'Julie Kavner'
p1990
aS'Elia Kazan'
p1991
aS'Catherine Keener'
p1992
aS'Arthur Conan Doyle'
p1993
aS'Jon Gries'
p1994
aS'Michael Piller'
p1995
aS'Joseph Walker'
p1996
aS'Paul Winfield'
p1997
aS'Stephen Frears'
p1998
aS'Michael R. Miller'
p1999
aS'Dennis Miller'
p2000
aS'Tatsuo Yoshida'
p2001
aS'Anatole Dauman'
p2002
aS'Bernard Rose'
p2003
aS'Peter Dasent'
p2004
aS'Francis Kenny'
p2005
aS'Lionel Lindon'
p2006
aS'Diahnne Abbott'
p2007
aS'Rosanna Arquette'
p2008
aS'Todd Solondz'
p2009
aS'Michael London'
p2010
aS'Francis Veber'
p2011
aS'Mark Johnson'
p2012
aS'Andrea Barata Ribeiro'
p2013
aS'John Palermo'
p2014
aS'Gabrielle Anwar'
p2015
aS'Mitchell Peck'
p2016
aS'Budd Schulberg'
p2017
aS'Patrick Lin'
p2018
aS'John Fiedler'
p2019
aS'Ted Griffin'
p2020
aS'Gordon Carroll'
p2021
aS'M. Night Shyamalan'
p2022
aS'Andrea Eckert'
p2023
aS'Emile Hirsch'
p2024
aS'Pamela Falk'
p2025
aS'Jim Jennewein'
p2026
aS'Michael Preston'
p2027
aS'Louis Begley'
p2028
aS'Bill Pope'
p2029
aS'John Eskow'
p2030
aS'Joaquim de Almeida'
p2031
aS'Matt Freeman'
p2032
aS'Kassim Jagmagia'
p2033
aS'Debra Martin Chase'
p2034
aS'Lyn Murray'
p2035
aS'Powers Boothe'
p2036
aS'Tasha de Vasconcelos'
p2037
aS'Paul Cameron'
p2038
aS'Jason Segel'
p2039
aS'Vince Vieluf'
p2040
aS'D.J. Caruso'
p2041
aS'Michael Clarke Duncan'
p2042
aS'John Tormey'
p2043
aS'Karen Murphy'
p2044
aS'Harold Faltermeyer'
p2045
aS'Elaine Goldsmith-Thomas'
p2046
aS'Leo Tover'
p2047
aS'Harry Keramidas'
p2048
aS'Norman Ferguson'
p2049
aS'Shirley Jackson'
p2050
aS'Carl Zittrer'
p2051
aS'Scott Goldman'
p2052
aS'Ken Foree'
p2053
aS'David Kirschner'
p2054
aS'Eric Bernt'
p2055
aS'Mark Pellington'
p2056
aS'Hossein Amini'
p2057
aS'Dwight Yoakam'
p2058
aS'Melissa Rosenberg'
p2059
aS'Eric Alan Edwards'
p2060
aS'John W. Cunningham'
p2061
aS'Timothy Harris'
p2062
aS'William Steig'
p2063
aS'Eduard Artemev'
p2064
aS'Martin Richards'
p2065
aS'Choderlos de Laclos'
p2066
aS'Robert Aldrich'
p2067
aS'Jane Alexander'
p2068
aS'Eddie Albert'
p2069
aS'Brian Aldiss'
p2070
aS'Danny Aiello'
p2071
aS'Anouk Aim\xc3\xa9e'
p2072
aS'Tom Tykwer'
p2073
aS'Stephen Deutsch'
p2074
aS'Margaret Whitton'
p2075
aS'Graeme Clifford'
p2076
aS'Wynn Thomas'
p2077
aS'Tim Zinnemann'
p2078
aS'Edward Burns'
p2079
aS'Joel Zwick'
p2080
aS'Jamie Bell'
p2081
aS'George P. Cosmatos'
p2082
aS'Kishori Ballal'
p2083
aS'Heather Donahue'
p2084
aS'Jessie Nelson'
p2085
aS'Tom Wilkinson'
p2086
aS'David Byrne'
p2087
aS'Adrian Askarieh'
p2088
aS'Wally Wood'
p2089
aS'Barry Bernardi'
p2090
aS'Jay Rabinowitz'
p2091
aS'Bud Cort'
p2092
aS'Sofia Coppola'
p2093
aS'Chris Columbus'
p2094
aS'Jeff Conaway'
p2095
aS'Paulo Costanzo'
p2096
aS'Jeffrey Kusama-Hinte'
p2097
aS'Jackie Coogan'
p2098
aS'Joseph LaShelle'
p2099
aS'Mark DiSalle'
p2100
aS'Milton R. Krasner'
p2101
aS'Jennifer Todd'
p2102
aS'Gina Wendkos'
p2103
aS'Ted Berman'
p2104
aS'Robert Q. Lovett'
p2105
aS'Ernest Laszlo'
p2106
aS'David Della Rocco'
p2107
aS'Buddy Johnson'
p2108
aS'Winston Hibler'
p2109
aS'Lionel Wigram'
p2110
aS'Bert Lahr'
p2111
aS'Sonia Chernus'
p2112
aS'Michael S. Chernuchin'
p2113
aS'Jan A.P. Kaczmarek'
p2114
aS'William S. Beasley'
p2115
aS'Michael Birnbaum'
p2116
aS'Leo Fitzpatrick'
p2117
aS'Bill Thompson'
p2118
aS'Kristen Bell'
p2119
aS'Oliver Sacks'
p2120
aS'Basil Poledouris'
p2121
aS'Rachel Portman'
p2122
aS'Norman Burton'
p2123
aS'Dany Wolf'
p2124
aS'Mollie Kent'
p2125
aS'Glen Keane'
p2126
aS'Chester Gould'
p2127
aS'Stephen McEveety'
p2128
aS'Robert F. Boyle'
p2129
aS'Gary W. Goldstein'
p2130
aS'David Sproxton'
p2131
aS'Steven Brill'
p2132
aS'Andre Braugher'
p2133
aS'Mami Koyama'
p2134
aS'Eric Garcia'
p2135
aS'Christian Kane'
p2136
aS'Haruyo Kanesaku'
p2137
aS'Kim Krizan'
p2138
aS'Claudette Colbert'
p2139
aS'Dabney Coleman'
p2140
aS'Chris Williams'
p2141
aS'Jon Peters'
p2142
aS'Roy Thomas'
p2143
aS'Robbie Coltrane'
p2144
aS'Margaret Stohl'
p2145
aS'Marc Duret'
p2146
aS'Agostino Marangolo'
p2147
aS'Sacha Baron Cohen'
p2148
aS'Preston Lacy'
p2149
aS'Eric Roth'
p2150
aS'Julius J. Epstein'
p2151
aS'Diane Cilento'
p2152
aS'Neal Edelstein'
p2153
aS'Eli Roth'
p2154
aS'Kim Wilson'
p2155
aS'Linda Woolverton'
p2156
aS'Nick Hornby'
p2157
aS'Douglas Cook'
p2158
aS'George Clooney'
p2159
aS'Charles Chaplin'
p2160
aS'Phoebe Cates'
p2161
aS'Jim Carrey'
p2162
aS'Wes Craven'
p2163
aS'Kevin Costner'
p2164
aS'Sean Connery'
p2165
aS'Jennifer Connelly'
p2166
aS'Dennis McNicholas'
p2167
aS'Tom Cruise'
p2168
aS'Russell Crowe'
p2169
aS'David Robbins'
p2170
aS'Richard D. Zanuck'
p2171
aS'Lili Fini Zanuck'
p2172
aS'Michael Rapaport'
p2173
aS'Donna Reed'
p2174
aS'Oliver Reed'
p2175
aS'Lynn Redgrave'
p2176
aS'Christopher Reeve'
p2177
aS'Alan Heim'
p2178
aS'Erik Nordgren'
p2179
aS'Roque Ba\xc3\xb1os'
p2180
aS'Patricia Clarkson'
p2181
aS'Jay Anson'
p2182
aS'Afro Celt Sound System'
p2183
aS'Howard Franklin'
p2184
aS'Qi Shu'
p2185
aS'Hunter S. Thompson'
p2186
aS'Robert Englund'
p2187
aS'Roland Emmerich'
p2188
aS'Sam Elliott'
p2189
aS'Danny Elfman'
p2190
aS'Koushun Takami'
p2191
aS'Robert Duvall'
p2192
aS'Philip MacDonald'
p2193
aS'Emilio Estevez'
p2194
aS'R. Lee Ermey'
p2195
aS'Cleavon Little'
p2196
aS"Tommy 'Tiny' Lister"
p2197
aS'John Lithgow'
p2198
aS'David Berenbaum'
p2199
aS'Laura Linney'
p2200
aS'Jerry Lewis'
p2201
aS'Jane Kurson'
p2202
aS'Mark Radcliffe'
p2203
aS'Mary Rodgers'
p2204
aS'Larry Beinhart'
p2205
aS'Darla K. Anderson'
p2206
aS'Roger Murray-Leach'
p2207
aS'Ian McNeice'
p2208
aS'Vernon Wells'
p2209
aS'Ken Kirzinger'
p2210
aS'Joshua Leonard'
p2211
aS'Finn Carter'
p2212
aS'Felix Chong'
p2213
aS'Peter Hyams'
p2214
aS'Ice-T'
p2215
aS'Eric Idle'
p2216
aS'Natalie Imbruglia'
p2217
aS'Michael Badalucco'
p2218
aS'George Tomasini'
p2219
aS'James Bresnahan'
p2220
aS'Peter Macgregor-Scott'
p2221
aS'Frances Sternhagen'
p2222
aS'Gerry Conlon'
p2223
aS'Justin Cooper'
p2224
aS"Ryan O'Neal"
p2225
aS'Gregory Nava'
p2226
aS'Arnold Perl'
p2227
aS'Craig Pearce'
p2228
aS'Tom S. Parker'
p2229
aS'Matthew Stone'
p2230
aS'Jeff Cohen'
p2231
aS'Mick Garris'
p2232
aS'Anton Yelchin'
p2233
aS'Anna Kendrick'
p2234
aS'Jodi Benson'
p2235
aS'Umberto Eco'
p2236
aS'Peter Chernin'
p2237
aS'William Osborne'
p2238
aS'Thomas Del Ruth'
p2239
aS'Len Brown'
p2240
aS'Leigh Brown'
p2241
aS'Roman Vasyanov'
p2242
aS'Adam Cockburn'
p2243
aS'Bob Burden'
p2244
aS'Murray Salem'
p2245
aS'Melissa George'
p2246
aS'Joe Johnston'
p2247
aS'Lasse Hallstr\xc3\xb6m'
p2248
aS'Darren McGavin'
p2249
aS'Gary Ross'
p2250
aS'Lawrence Wright'
p2251
aS'Lorenzo Carcaterra'
p2252
aS'Bradley Whitford'
p2253
aS'Scott Rosenberg'
p2254
aS'Marc Shaiman'
p2255
aS'Gina Matthews'
p2256
aS'Charlie Clouser'
p2257
aS'Alexandre Rockwell'
p2258
aS'Wolfgang Lukschy'
p2259
aS'Ian McLellan Hunter'
p2260
aS'Harry Crocker'
p2261
aS'Eduardo Noriega'
p2262
aS'Shirow Masamune'
p2263
aS'Viveca Lindfors'
p2264
aS'Sa\xc3\xafd Ben Sa\xc3\xafd'
p2265
aS'Guillermo Navarro'
p2266
aS'Jon Brion'
p2267
aS'Kelly Asbury'
p2268
aS'John S. Lyons'
p2269
aS'Greyson Erik Pendry'
p2270
aS'Claire Foy'
p2271
aS'Paul Rosenberg'
p2272
aS'Douglas Wick'
p2273
aS'Richard Rodney Bennett'
p2274
aS'Terence Blanchard'
p2275
aS'Gabrielle Witcher'
p2276
aS'Tim Johnson'
p2277
aS'Debra Chiate'
p2278
aS'Louis Leterrier'
p2279
aS'Bernie Goldmann'
p2280
aS'David Weisberg'
p2281
aS'James Woods'
p2282
aS'Ian Abercrombie'
p2283
aS'Donald Stewart'
p2284
aS'Mark Wahlberg'
p2285
aS'Denzel Washington'
p2286
aS'Skeet Ulrich'
p2287
aS'Kareem Abdul-Jabbar'
p2288
aS'Bruce Willis'
p2289
aS'John Woo'
p2290
aS'Sigourney Weaver'
p2291
aS'Robin Williams'
p2292
aS'Patti LuPone'
p2293
aS'Wei Zhao'
p2294
aS'Adam Trese'
p2295
aS'Natalya Bondarchuk'
p2296
aS'Roberta Maxwell'
p2297
aS'David Dorfman'
p2298
aS'Walter Bernstein'
p2299
aS'Shane West'
p2300
aS'Karen McCullah'
p2301
aS'Simon West'
p2302
aS'Kathy Lutz'
p2303
aS'David J. Schow'
p2304
aS'Nick Park'
p2305
aS'Jenny Bicks'
p2306
aS'Christopher Nolan'
p2307
aS'Teddy Zee'
p2308
aS'Charles Napier'
p2309
aS'Hugh Wheeler'
p2310
aS'John Saxon'
p2311
aS'Rick Heinrichs'
p2312
aS'Trey Parker'
p2313
aS'Olga Kurylenko'
p2314
aS'George Carlin'
p2315
aS'Oscar Rosander'
p2316
aS'Mar\xc3\xada Victoria Hebrero'
p2317
aS'Bruno Delbonnel'
p2318
aS'Trevor Jack Brooks'
p2319
aS'Jonathan Glickman'
p2320
aS'Jeff Jur'
p2321
aS'Slawomir Idziak'
p2322
aS'Julie Christie'
p2323
aS'Rae Dawn Chong'
p2324
aS'Bob Murawski'
p2325
aS'Maggie Cheung'
p2326
aS'Joan Chen'
p2327
aS'Steve Hickner'
p2328
aS'Don Zimmerman'
p2329
aS'Martin Henderson'
p2330
aS'Gilbert Adair'
p2331
aS'John C. Champion'
p2332
aS'Jeffrey Chernov'
p2333
aS'Henry Selick'
p2334
aS'Jonathan Hyde'
p2335
aS'Walter Schumann'
p2336
aS'Lee R. Mayes'
p2337
aS'Pat Proft'
p2338
aS'Jorge Saralegui'
p2339
aS'Henry Daniell'
p2340
aS'Ryo Ishibashi'
p2341
aS'Charles Mulvehill'
p2342
aS'Michael Nyman'
p2343
aS'Alex North'
p2344
aS'Jack Nitzsche'
p2345
aS'Lennie Niehaus'
p2346
aS'Chris Brinker'
p2347
aS'Chika Sakamoto'
p2348
aS'Bruce Malmuth'
p2349
aS'Matty Malneck'
p2350
aS'Hall Bartlett'
p2351
aS'Michel Gondry'
p2352
aS'Carl Gottlieb'
p2353
aS'Bobby Cannavale'
p2354
aS'Art Vitello'
p2355
aS'Keir Dullea'
p2356
aS'Thomas Newman'
p2357
aS'John Williams'
p2358
aS'Josann McGibbon'
p2359
aS'Pung-Leung Kwan'
p2360
aS'Chris Dickens'
p2361
aS'Ajay Naidu'
p2362
aS'Marc Rocco'
p2363
aS'David V. Lester'
p2364
aS'Elizabeth Avellan'
p2365
aS'Ann Druyan'
p2366
aS'Matty Simmons'
p2367
aS'Eric Rattray'
p2368
aS'Ray Winstone'
p2369
aS'Christopher Cosby'
p2370
aS'Feng Li'
p2371
aS'Maurice Dean Wint'
p2372
aS'Josh Duhamel'
p2373
aS'Marco Weber'
p2374
aS'Sharon Small'
p2375
aS'Toby Jaffe'
p2376
aS'Daniel E. Taylor'
p2377
aS'Norman Golightly'
p2378
aS'Peter Chelsom'
p2379
aS'Nadia Far\xc3\xa8s'
p2380
aS'Oliver Cooper'
p2381
aS'Goya Toledo'
p2382
aS'Nigel Westlake'
p2383
aS'Rade Serbedzija'
p2384
aS'Beau St. Clair'
p2385
aS'Bob Kane'
p2386
aS'Tom Hulce'
p2387
aS'John Muto'
p2388
aS'Melinda Dillon'
p2389
aS'Neil Travis'
p2390
aS'Bonnie Hunt'
p2391
aS'Lisa Weinstein'
p2392
aS'Denise Richards'
p2393
aS'Aki Maeda'
p2394
aS'David Lindsay-Abaire'
p2395
aS'Jared Leto'
p2396
aS'Julia Chasman'
p2397
aS'Steven Chasman'
p2398
aS'Larry Wilson'
p2399
aS'Richard P. Rubinstein'
p2400
aS'Sam Montgomery'
p2401
aS'Pasquale Buba'
p2402
aS'Clay Tarver'
p2403
aS'Paul Wernick'
p2404
aS'Robin Moore'
p2405
aS'Gene Havlick'
p2406
aS'Jonathan Ke Quan'
p2407
aS'Arthur Penn'
p2408
aS'Wolf Mankowitz'
p2409
aS'Charles Portis'
p2410
aS'Natasha Richardson'
p2411
aS'Jason Robards'
p2412
aS'Chris Rock'
p2413
aS'Robert Rodriguez'
p2414
aS'Jong-yun No'
p2415
aS'Bruno Coulais'
p2416
aS'Carey Lowell'
p2417
aS'Martial Solal'
p2418
aS'Mathilde Bonnefoy'
p2419
aS'Ray Liotta'
p2420
aS'Richard Linklater'
p2421
aS'Christopher Lloyd'
p2422
aS'Nia Long'
p2423
aS'Rob Lowe'
p2424
aS'Julia Louis-Dreyfus'
p2425
aS'Ryan Kavanaugh'
p2426
aS'Will Rokos'
p2427
aS'Mark Bowden'
p2428
aS'Cloris Leachman'
p2429
aS'Denis Leary'
p2430
aS'Martin Lawrence'
p2431
aS'Matt LeBlanc'
p2432
aS'Kelly LeBrock'
p2433
aS'Angela Lansbury'
p2434
aS'Queen Latifah'
p2435
aS'Charles Laughton'
p2436
aS'Piper Laurie'
p2437
aS'Randall McCormick'
p2438
aS'Patrick McCormick'
p2439
aS'Francesca Neri'
p2440
aS'Akemi Yamaguchi'
p2441
aS'Vicky McClure'
p2442
aS'Jacqueline McKenzie'
p2443
aS'Vernon Dobtcheff'
p2444
aS'Ian Watkin'
p2445
aS"Sam O'Steen"
p2446
aS'Jackie Cooper'
p2447
aS'Ted Tally'
p2448
aS'Andrew Bergman'
p2449
aS'Paula Pell'
p2450
aS'Joel Gallen'
p2451
aS'Jim Carroll'
p2452
aS'Anthony Minghella'
p2453
aS'Steve Shagan'
p2454
aS'Steven Berkoff'
p2455
aS'Bobby Moresco'
p2456
aS'Douglas Adams'
p2457
aS'Boris Pasternak'
p2458
aS'Erich Pommer'
p2459
aS'Conrad W. Hall'
p2460
aS'Bruce Joel Rubin'
p2461
aS'Buzz Kilman'
p2462
aS'William Arnold'
p2463
aS'Paul Freeman'
p2464
aS'Clark Gregg'
p2465
aS'Javier Aguirresarobe'
p2466
aS'Tom Hardy'
p2467
aS'Edward Neumeier'
p2468
aS'Kerry Conran'
p2469
aS'Malcolm Campbell'
p2470
aS'Ruth Gordon'
p2471
aS'Paulette Goddard'
p2472
aS'Julian Glover'
p2473
aS'Dar\xc3\xado Grandinetti'
p2474
aS'Doug Davison'
p2475
aS'Richard Francis-Bruce'
p2476
aS'Rob Brown'
p2477
aS'Hilary Henkin'
p2478
aS'Robin Cowie'
p2479
aS'Clyde Bruckman'
p2480
aS'K\xc3\xb4ichi Yamadera'
p2481
aS'Jennifer Beals'
p2482
aS'Ned Beatty'
p2483
aS'Warren Beatty'
p2484
aS'Harold Becker'
p2485
aS'Cameron Bright'
p2486
aS'Alison R. Rosenzweig'
p2487
aS'John D. MacDonald'
p2488
aS'Bonnie Bedelia'
p2489
aS'Viveca Paulin'
p2490
aS'Mario Machado'
p2491
aS'Patrick Wilson'
p2492
aS'Richard A. Harris'
p2493
aS'Ronald Sanders'
p2494
aS'Bam Margera'
p2495
aS'Mitchell Whitfield'
p2496
aS'James Mangold'
p2497
aS'Justin Henry'
p2498
aS'Orson Welles'
p2499
aS'Natalie Wood'
p2500
aS'Pearl Bailey'
p2501
aS'Jeff Garlin'
p2502
aS'David Hayter'
p2503
aS'Deric Washburn'
p2504
aS'Brian Tufano'
p2505
aS'Jon Heder'
p2506
aS'Gregg Toland'
p2507
aS'Joan Allen'
p2508
aS'Karen Allen'
p2509
aS'Nancy Allen'
p2510
aS'Kirstie Alley'
p2511
aS'Pedro Almod\xc3\xb3var'
p2512
aS'Robert Altman'
p2513
aS'Ursula Andress'
p2514
aS'Julie Andrews'
p2515
aS'Jean-Jacques Annaud'
p2516
aS"Tommy O'Haver"
p2517
aS'Howard Lindsay'
p2518
aS'Peter Lyons Collister'
p2519
aS'Corey Blechman'
p2520
aS'Victor Hugo'
p2521
aS'Ramon Bieri'
p2522
aS'Tari'
p2523
aS'Jack Rapke'
p2524
aS'Edward Summer'
p2525
aS'Ryan Dunn'
p2526
aS'Neal Fredericks'
p2527
aS'Mako'
p2528
aS'Andrew R. Jones'
p2529
aS'Jake Gyllenhaal'
p2530
aS'John Meillon'
p2531
aS'Tony Gilroy'
p2532
aS'Rickie Sorensen'
p2533
aS'Clark Peterson'
p2534
aS'Masahiro Hirakubo'
p2535
aS'Glynis Johns'
p2536
aS'Seymour Cassel'
p2537
aS'Nick Cassavetes'
p2538
aS'Iben Hjejle'
p2539
aS'Katrin Cartlidge'
p2540
aS'John Cassavetes'
p2541
aS'Katie Holmes'
p2542
aS'Bo Hopkins'
p2543
aS'Jim Caviezel'
p2544
aS'Charles Correll'
p2545
aS'Len Wiseman'
p2546
aS'Andrew Niccol'
p2547
aS'Richard Condon'
p2548
aS'Bruce Greenwood'
p2549
aS'Nima Nourizadeh'
p2550
aS'Charles Bernstein'
p2551
aS'Gittan Gustafsson'
p2552
aS'King Vidor'
p2553
aS'Michael Radford'
p2554
aS'Marc Platt'
p2555
aS'Rachel True'
p2556
aS'Chris Pontius'
p2557
aS'Jack Fletcher'
p2558
aS'Bernard Williams'
p2559
aS'Pat Hingle'
p2560
aS'Helen Prejean'
p2561
aS'Andr\xc3\xa9 Bijelic'
p2562
aS'Broderick Johnson'
p2563
aS'Lalo Schifrin'
p2564
aS'Danielle Panabaker'
p2565
aS'Jan Chapman'
p2566
aS'Ryan Gosling'
p2567
aS'Jeremy Bolt'
p2568
aS'Rudolf Klein-Rogge'
p2569
aS'Gaspard Ulliel'
p2570
aS'Mark Boone Junior'
p2571
aS'Rab Affleck'
p2572
aS'Luciana Paluzzi'
p2573
aS'Takashi Miike'
p2574
aS'Woody Harrelson'
p2575
aS'Tony Puryear'
p2576
aS'Charles Brackett'
p2577
aS'David Hare'
p2578
aS'Tracy Rector'
p2579
aS'Alexandra Maria Lara'
p2580
aS'Reuben Freed'
p2581
aS'Peyton Reed'
p2582
aS'Suchao Pongwilai'
p2583
aS'Emily Mortimer'
p2584
aS'Rick Cleveland'
p2585
aS'Bruce Spence'
p2586
aS'Pitof'
p2587
aS'Anand Upadhyaya'
p2588
aS'Michael Bregman'
p2589
aS'Martin Bregman'
p2590
aS'Paul Henning'
p2591
aS'Nicholas Elia'
p2592
aS'Joe Baker'
p2593
aS'Pembroke J. Herring'
p2594
aS'Mark Andrus'
p2595
aS'Joon-ho Bong'
p2596
aS'Kevin Heffernan'
p2597
aS'Molly Marlene Stensgaard'
p2598
aS'Alex Garland'
p2599
aS'J.D. Shapiro'
p2600
aS'Yoshiko Shinohara'
p2601
aS'David Carson'
p2602
aS'Jerome Armstrong'
p2603
aS'Henry Silva'
p2604
aS'Roland Totheroh'
p2605
aS'Karen Glasser'
p2606
aS'Tomas Krejci'
p2607
aS'Charles Addams'
p2608
aS'Dorothy Comingore'
p2609
aS'Robert Kurtzman'
p2610
aS'Calder Willingham'
p2611
aS'Vladislav Dvorzhetskiy'
p2612
aS'M. Raven Metzner'
p2613
aS'Sebastian Junger'
p2614
aS'Brian Morris'
p2615
aS'George Raft'
p2616
aS'Carey Mulligan'
p2617
aS'Paul Rudnick'
p2618
aS'Michael Wincott'
p2619
aS'Gene Wilder'
p2620
aS'John Waters'
p2621
aS'Lesley Ann Warren'
p2622
aS'Peter Weller'
p2623
aS'Joanne Whalley'
p2624
aS'Wim Wenders'
p2625
aS'Billy Wilder'
p2626
aS'Wil Wheaton'
p2627
aS'William Peter Blatty'
p2628
aS'Thomas Bangalter'
p2629
aS'Joaquin Phoenix'
p2630
aS'Mekhi Phifer'
p2631
aS'Lori Petty'
p2632
aS'Elizabeth Pe\xc3\xb1a'
p2633
aS'Matthew Perry'
p2634
aS'Gary Levinsohn'
p2635
aS'Elizabeth Perkins'
p2636
aS'Christi Dembrowski'
p2637
aS'Marie Brenner'
p2638
aS'John Du Prez'
p2639
aS'Steve Dorff'
p2640
aS'Joe Stillman'
p2641
aS'Jeph Loeb'
p2642
aS'Klaus Doldinger'
p2643
aS'Don Burgess'
p2644
aS'Sam Riley'
p2645
aS'Debi Mazar'
p2646
aS'Ronald Bass'
p2647
aS'Samantha Mathis'
p2648
aS'Mary Stuart Masterson'
p2649
aS'Julianna Margulies'
p2650
aS'Sophie Marceau'
p2651
aS'Michael Mann'
p2652
aS'Cathy Yuspa'
p2653
aS'Vadim Yusov'
p2654
aS'Roger Waters'
p2655
aS'Isaac Asimov'
p2656
aS'Paul Attanasio'
p2657
aS'Hoyt Axton'
p2658
aS'Sam Graham'
p2659
aS'Mace Neufeld'
p2660
aS'John A. Russo'
p2661
aS'Stuart Wurtzel'
p2662
aS'Ken Mok'
p2663
aS'Michael Stipe'
p2664
aS'Ray Nelson'
p2665
aS'Mary Steenburgen'
p2666
aS'Jerry Stiller'
p2667
aS'Julia Stiles'
p2668
aS'Alexander Witt'
p2669
aS'Antonia San Juan'
p2670
aS'Gail Katz'
p2671
aS'Hugh Lofting'
p2672
aS'Richard Hatem'
p2673
aS'Charlie Sheen'
p2674
aS'Fred Roos'
p2675
aS'Colton James'
p2676
aS'Lars Bo Jensen'
p2677
aS'Michael Sheen'
p2678
aS'Julie Bowen'
p2679
aS'Joaqu\xc3\xadn Baca-Asay'
p2680
aS'Michael Bacall'
p2681
aS'Chris Pine'
p2682
aS'Christian Rub'
p2683
aS'Homer'
p2684
aS'Andr\xc3\xa9 Vippolis'
p2685
aS'David Gulpilil'
p2686
aS'Peter Handke'
p2687
aS'John A. Alonzo'
p2688
aS'Vincent Gardenia'
p2689
aS'Henri Alekan'
p2690
aS'Mamoru Oshii'
p2691
aS'Joel Cox'
p2692
aS'Aitana S\xc3\xa1nchez-Gij\xc3\xb3n'
p2693
aS'Malin Akerman'
p2694
aS'Robin Swicord'
p2695
aS'Molly Smith'
p2696
aS'Fred Ebb'
p2697
aS'Warren Zide'
p2698
aS'Mariano Mar\xc3\xadn'
p2699
aS'Paula Wagner'
p2700
aS'Marc Moss'
p2701
aS'Roe-ha Kim'
p2702
aS'Kwang-rim Kim'
p2703
aS'Kim Henkel'
p2704
aS'John Morris'
p2705
aS'Michael Bostick'
p2706
aS'Glover Gill'
p2707
aS'Sondra Locke'
p2708
aS'Emilio Rivera'
p2709
aS'Paul W.S. Anderson'
p2710
aS'Michael McDowell'
p2711
aS'David Veloz'
p2712
aS'Gregory Peck'
p2713
aS'Lou Barlow'
p2714
aS'Edward G. Robinson'
p2715
aS'Nino Rota'
p2716
aS'Saffron Burrows'
p2717
aS'Phyllida Law'
p2718
aS'Frank Sinatra'
p2719
aS'Daniel Myrick'
p2720
aS'Paul Sylbert'
p2721
aS'Kevin Yagher'
p2722
aS'Harry Waxman'
p2723
aS'Brian Reitzell'
p2724
aS'Sam Harper'
p2725
aS'Fritz Arno Wagner'
p2726
aS'Ric Waite'
p2727
aS'Oliver Wood'
p2728
aS'Michael Chabon'
p2729
aS'Jackie Chan'
p2730
aS'Keanu Reeves'
p2731
aS'Christina Ricci'
p2732
aS'Natalie Portman'
p2733
aS'Parker Posey'
p2734
aS'Marc Silverstein'
p2735
aS'River Phoenix'
p2736
aS'Bill Paxton'
p2737
aS'Michelle Pfeiffer'
p2738
aS'David Ray'
p2739
aS'Molly Ringwald'
p2740
aS'Tim Robbins'
p2741
aS'Laurent Bouzereau'
p2742
aS'Jo Heims'
p2743
aS'Matthew Weisman'
p2744
aS'Sandra Oh'
p2745
aS'George Nolfi'
p2746
aS'Stephen Sommers'
p2747
aS'Laura Bickford'
p2748
aS'Yoshihiro Kasahara'
p2749
aS'Carrie-Anne Moss'
p2750
aS'Bridget Moynahan'
p2751
aS'John Lurie'
p2752
aS'Marc Hyman'
p2753
aS'Rob Bowman'
p2754
aS'Kate Capshaw'
p2755
aS'Frank Capra'
p2756
aS'Simon Callow'
p2757
aS'Cathy Moriarty'
p2758
aS'Michio Mamiya'
p2759
aS'Pat Morita'
p2760
aS'Rob Morrow'
p2761
aS'John Candy'
p2762
aS'Viggo Mortensen'
p2763
aS'David Morse'
p2764
aS'Jeffrey Katzenberg'
p2765
aS'Gavin Scott'
p2766
aS'Stacy Keach'
p2767
aS'Bradley Thomas'
p2768
aS'Dennis Storh\xc3\xb8i'
p2769
aS'Joe Penhall'
p2770
aS'Sandra Adair'
p2771
aS'Chuck Palahniuk'
p2772
aS'Samantha Sloyan'
p2773
aS'Daniel Emilfork'
p2774
aS'Maggie Gyllenhaal'
p2775
aS'Mort Nathan'
p2776
aS'Bragi F. Schut'
p2777
aS'Lucas Foster'
p2778
aS'Frank Miller'
p2779
aS'Brigitte Helm'
p2780
aS'Peter Steinfeld'
p2781
aS'Jonathan T. Taplin'
p2782
aS'Liz Heller'
p2783
aS'Ronny Yu'
p2784
aS'Lukas Heller'
p2785
aS'Dennie Gordon'
p2786
aS'Tom Jankiewicz'
p2787
aS'Richard Roundtree'
p2788
aS'Daniel Rappaport'
p2789
aS'Kurt Engfehr'
p2790
aS'Jatin Pandit'
p2791
aS'Philip G. Epstein'
p2792
aS'Chi-long To'
p2793
aS'Yuriko Ishida'
p2794
aS'Graeme Revell'
p2795
aS'Joe Renzetti'
p2796
aS'Ralph Meeker'
p2797
aS'J. Peter Robinson'
p2798
aS'Maia Morgenstern'
p2799
aS'Frank Overton'
p2800
aS'David Shaber'
p2801
aS'Jon Gregory'
p2802
aS'Lou Lombardo'
p2803
aS'Rhonda Tollefson'
p2804
aS'Ron Osborn'
p2805
aS'Javed Siddiqui'
p2806
aS'Laurence Mark'
p2807
aS'Chatchawai Kamonsakpitak'
p2808
aS"Ed O'Ross"
p2809
aS'Alejandro Amen\xc3\xa1bar'
p2810
aS'Tom Perrotta'
p2811
aS'Larry Clemmons'
p2812
aS'Dania Abu-Rmaileh'
p2813
aS'Steve Burton'
p2814
aS'William Rose'
p2815
aS'Nellie Bellflower'
p2816
aS'Marvin Worth'
p2817
aS'Rudd Simmons'
p2818
aS'Jonathan Brown'
p2819
aS'Larisa Oleynik'
p2820
aS'John Schlesinger'
p2821
aS'Ken Wheat'
p2822
aS'William Atherton'
p2823
aS'Harriet Andersson'
p2824
aS'Dana Carvey'
p2825
aS'Robert King'
p2826
aS'Alice Hoffman'
p2827
aS'Ned Lott'
p2828
aS'Jean Seberg'
p2829
aS'Y\xc3\xb4ko Tsukasa'
p2830
aS'Alexandre Aja'
p2831
aS'Richard N. Goodwin'
p2832
aS'Richard Barton Lewis'
p2833
aS'Michael McDonnell'
p2834
aS'Michael Jordan'
p2835
aS'Jerome Robbins'
p2836
aS'Ehren Kruger'
p2837
aS'Leigh Dunlap'
p2838
aS'Paulo Lins'
p2839
aS'Miles Millar'
p2840
aS'Donald Gibb'
p2841
aS'Jonathan Lynn'
p2842
aS'Ward Greene'
p2843
aS'Egon Jacobson'
p2844
aS'Jane Sindell'
p2845
aS'Bill Miller'
p2846
aS'Alex Frost'
p2847
aS'Terry Turner'
p2848
aS'Darius Khondji'
p2849
aS'Sarah Henderson'
p2850
aS'Jonathan Finn'
p2851
aS'Bernard Lee'
p2852
aS'Arthur M. Sarkissian'
p2853
aS'Owen Roizman'
p2854
aS'Sage Stallone'
p2855
aS'Paul Lombardi'
p2856
aS'Gretchen Mol'
p2857
aS'Jeff Gibbs'
p2858
aS'Priscilla Presley'
p2859
aS'Sarah Polley'
p2860
aS'Robert Hamner'
p2861
aS'Annie Potts'
p2862
aS'Jack Lemmon'
p2863
aS'J\xc3\xbcrgen Prochnow'
p2864
aS'Alex Proyas'
p2865
aS'Sienna Miller'
p2866
aS'Patricia Highsmith'
p2867
aS'Bryan Jones'
p2868
aS'Michael Galasso'
p2869
aS'Desmond Harrington'
p2870
aS'Matthew Modine'
p2871
aS'Gary McKendry'
p2872
aS'Penelope Ann Miller'
p2873
aS'Shigeo Sugimura'
p2874
aS'Brian Ward'
p2875
aS'Raynold Gideon'
p2876
aS'Roger Moore'
p2877
aS'Sharon Maguire'
p2878
aS'John Mahoney'
p2879
aS'Tina Majorino'
p2880
aS'Tom Lazarus'
p2881
aS'Adrian Lyne'
p2882
aS'Melanie Lynskey'
p2883
aS'Kyle MacLachlan'
p2884
aS'Ralph Macchio'
p2885
aS'Amy Madigan'
p2886
aS'Jeremy Thomas'
p2887
aS'Nikolaj Frobenius'
p2888
aS'Marisa Berenson'
p2889
aS'Peter Benchley'
p2890
aS'Willi B\xc3\xa4r'
p2891
aS'Flavio Bucci'
p2892
aS'Andrew Birkin'
p2893
aS'Satoshi Fukushima'
p2894
aS'Amy Adams'
p2895
aS'Kevin James'
p2896
aS'Andrzej Sekula'
p2897
aS'J.D. Cannon'
p2898
aS'Leelee Sobieski'
p2899
aS'Kerr Smith'
p2900
aS'Amy Smart'
p2901
aS'Alec Berg'
p2902
aS'Lauren Graham'
p2903
aS'Thomas A. Bliss'
p2904
aS'Nicholas Sparks'
p2905
aS'Alan Howarth'
p2906
aS'Julie Delpy'
p2907
aS'Larry Gelbart'
p2908
aS'Don Davis'
p2909
aS'T\xc3\xa9a Leoni'
p2910
aS'Dennis Gassner'
p2911
aS'Peter Menzies Jr.'
p2912
aS'Robert Sean Leonard'
p2913
aS'David Twohy'
p2914
aS'Danny Pang'
p2915
aS'Rebecca De Mornay'
p2916
aS'Danny DeVito'
p2917
aS'Fr\xc3\xa9d\xc3\xa9ric Thoraval'
p2918
aS'Chad Fischer'
p2919
aS'Steven Stabler'
p2920
aS'David Heyman'
p2921
aS'Armie Hammer'
p2922
aS'Judy Greer'
p2923
aS'Jeff Gullo'
p2924
aS'John Glen'
p2925
aS'Jim Gillespie'
p2926
aS'Lynda Obst'
p2927
aS'Trevor Howard'
p2928
aS'John Houseman'
p2929
aS'Fran\xc3\xa7ois-Eudes Chanfrault'
p2930
aS'Tar\xc3\xb4 Yamamoto'
p2931
aS'Julian Krainin'
p2932
aS'John Blumenthal'
p2933
aS'Jason Blumenthal'
p2934
aS'John Irving'
p2935
aS'Tony Roberts'
p2936
aS'Elias McConnell'
p2937
aS'Edwin Torres'
p2938
aS'Hitomi Sat\xc3\xb4'
p2939
aS'Michael Rosenbaum'
p2940
aS'Tom Priestley'
p2941
aS'Stephen Tobolowsky'
p2942
aS'Jack Albertson'
p2943
aS'Sunmin Park'
p2944
aS'Julio Caro'
p2945
aS'Bruce Campbell'
p2946
aS'Philippe Rousselot'
p2947
aS'Jorma Taccone'
p2948
aS'Ilona Herzberg'
p2949
aS'Sean Bailey'
p2950
aS'Marianne Koch'
p2951
aS'Michael Lehmann'
p2952
aS'David Wasco'
p2953
aS'Deborah Del Prete'
p2954
aS'Tyrese Gibson'
p2955
aS'Douglas J. Eboch'
p2956
aS'Edward Brophy'
p2957
aS'Nancy Wilson'
p2958
aS'David Newman'
p2959
aS'Leonardo Cimino'
p2960
aS'David Newman'
p2961
aS'Robert Lorenz'
p2962
aS'Alex Gartner'
p2963
aS'Michael Tadross'
p2964
aS'Peter Lorre'
p2965
aS'Henry Mancini'
p2966
aS'Hampton Fancher'
p2967
aS'Stanley Kubrick'
p2968
aS'Akira Kurosawa'
p2969
aS'Randy Newman'
p2970
aS'Vivien Leigh'
p2971
aS"Jerry O'Connell"
p2972
aS'John Toll'
p2973
aS'Jim McClain'
p2974
aS'Thomas Ian Nicholas'
p2975
aS'Alessandro Nivola'
p2976
aS'Rachel Ticotin'
p2977
aS'Brandy Norwood'
p2978
aS'Liv Ullmann'
p2979
aS'Mark Victor'
p2980
aS'Hugh Jackman'
p2981
aS'Kit Golden'
p2982
aS'Peter Rader'
p2983
aS'Chie Kobayashi'
p2984
aS'John Boorman'
p2985
aS'James Franco'
p2986
aS'Kevin Spacey'
p2987
aS'Steven Spielberg'
p2988
aS'Joel Stillerman'
p2989
aS'Alicia Silverstone'
p2990
aS'Christian Slater'
p2991
aS'Will Smith'
p2992
aS'Lisa Bonet'
p2993
aS'Jan de Bont'
p2994
aS'Jon Bon Jovi'
p2995
aS'Elisabeth Shue'
p2996
aS'John Brancato'
p2997
aS'Lucy Walters'
p2998
aS'David Levy'
p2999
aS"Annette O'Toole"
p3000
aS"Heather O'Rourke"
p3001
aS"Catherine O'Hara"
p3002
aS'Donald McAlpine'
p3003
aS'Edward Norton'
p3004
aS'Brad Gann'
p3005
aS'Herschel Weingrod'
p3006
aS'Hamilton Luske'
p3007
aS'Stephen Norrington'
p3008
aS'Donna Gigliotti'
p3009
aS'Daryl Sabara'
p3010
aS'Ruth Nelson'
p3011
aS'Dan Weil'
p3012
aS'Jacopo Quadri'
p3013
aS'Danny Rubin'
p3014
aS'Douglas Kenney'
p3015
aS'Dwayne Johnson'
p3016
aS'Rodrigo Prieto'
p3017
aS'Bill Malley'
p3018
aS'Wojciech Kilar'
p3019
aS'Brian Van Holt'
p3020
aS'Steven Rosenblum'
p3021
aS'Tamara Tunie'
p3022
aS'Robert Silverberg'
p3023
aS'Gert Fr\xc3\xb6be'
p3024
aS'Bob Fosse'
p3025
aS'Edward Fox'
p3026
aS'Brooke Langton'
p3027
aS'Matthew Vaughn'
p3028
aS'Jimmy Bennett'
p3029
aS'Rob Lowe Gonzales-Gomez'
p3030
aS'William Douglas-Home'
p3031
aS'Adam Brooks'
p3032
aS'John Bard Manulis'
p3033
aS'Charlie Kaufman'
p3034
aS'Boris Kaufman'
p3035
aS'Marty Krofft'
p3036
aS'Toshio Nabeshima'
p3037
aS'Gary Cockrell'
p3038
aS'Sid Krofft'
p3039
aS'Miriam Margolyes'
p3040
aS'Jim Mulholland'
p3041
aS'Karen Elise Baldwin'
p3042
aS'Wendy Greene Bricmont'
p3043
aS'Kevin Lima'
p3044
aS'Tommy Lee Wallace'
p3045
aS'Scott Hill'
p3046
aS'Dennis M. Hill'
p3047
aS'Ronald M. Bozman'
p3048
aS'Randy Kornfield'
p3049
aS'Judith Ridley'
p3050
aS'Alan Baumgarten'
p3051
aS'Declan Quinn'
p3052
aS'Roger Christian'
p3053
aS'Robert Estrin'
p3054
aS'Harold G. Moore'
p3055
aS'James Robinson'
p3056
aS'Joshua Goldin'
p3057
aS'Cliff Hayes'
p3058
aS'Don Siegel'
p3059
aS'Ce\xc3\xa1n Chaffin'
p3060
aS'James G. Robinson'
p3061
aS'Anne-Marie Martin'
p3062
aS'John Louie'
p3063
aS'Karl Hardman'
p3064
aS'Bill Cobbs'
p3065
aS'Oscar Saul'
p3066
aS'Bruno Ganz'
p3067
aS'Iemasa Kayumi'
p3068
aS"Rubin 'Hurricane' Carter"
p3069
aS'Rick King'
p3070
aS'Walter Tevis'
p3071
aS'Eric Bana'
p3072
aS'Jeffrey Sharp'
p3073
aS'Robert Redford'
p3074
aS'Ross LaManna'
p3075
aS'Dan Byrd'
p3076
aS'Fumio Hayasaka'
p3077
aS'Matt Manfredi'
p3078
aS'Adam Jay Epstein'
p3079
aS'Jeffrey Caine'
p3080
aS'Tom Sternberg'
p3081
aS'Barry Miller'
p3082
aS'Donald Petrie'
p3083
aS'Pierre-Ange Le Pogam'
p3084
aS'Vadim Perelman'
p3085
aS'Nigel Havers'
p3086
aS'Maggie Q'
p3087
aS'Jeff Anderson'
p3088
aS'David McKenna'
p3089
aS'Howard Deutch'
p3090
aS'Andrew Dunn'
p3091
aS'R.J. Stewart'
p3092
aS'Michael Shamberg'
p3093
aS'Eliza Dushku'
p3094
aS'Wilt Chamberlain'
p3095
aS'Robin Guthrie'
p3096
aS'John C. Richards'
p3097
aS'Massive Attack'
p3098
aS'Gwyneth Paltrow'
p3099
aS'Frank Oz'
p3100
aS'Ellen Latzen'
p3101
aS"Chris O'Donnell"
p3102
aS'Jeremy Northam'
p3103
aS'Nick Nolte'
p3104
aS'George Orwell'
p3105
aS'Julia Ormond'
p3106
aS'Lena Olin'
p3107
aS"Peter O'Toole"
p3108
aS'Peter Boyle'
p3109
aS'Elizabeth Moody'
p3110
aS'Ray Bolger'
p3111
aS'Dominic Purcell'
p3112
aS'John Requa'
p3113
aS'Ron Shelton'
p3114
aS'Paul Brickman'
p3115
aS'Charles Dance'
p3116
aS'Joel Silver'
p3117
aS'Mauricio Andrade Ramos'
p3118
aS'Stephen Baldwin'
p3119
aS'Anthony E. Pratt'
p3120
aS'Y\xc3\xbbko Takeuchi'
p3121
aS'Maxime Alexandre'
p3122
aS'Richard Beymer'
p3123
aS'Yiu-Fai Lai'
p3124
aS'Hayden Panettiere'
p3125
aS'Gary Fleder'
p3126
aS'Joseph Fiennes'
p3127
aS'Harvey Fierstein'
p3128
aS'Cassis Birgit Staudt'
p3129
aS'Fionnula Flanagan'
p3130
aS'Mike Figgis'
p3131
aS'Albert Finney'
p3132
aS'Michael Ferris'
p3133
aS'Martin Stellman'
p3134
aS'G. Mac Brown'
p3135
aS'Menno Meyjes'
p3136
aS'Eamonn Walker'
p3137
aS'Tracy Chevalier'
p3138
aS'Kevin McClory'
p3139
aS'Alberto Casella'
p3140
aS'Adam Rifkin'
p3141
aS'David Eggby'
p3142
aS'Jan Sardi'
p3143
aS'John Wright'
p3144
aS'Sandy Isaac'
p3145
aS'Malcolm Waite'
p3146
aS'Phillip Noyce'
p3147
aS'Howard Zieff'
p3148
aS'Stephen J. Anderson'
p3149
aS'Chris Henchy'
p3150
aS'Peter Best'
p3151
aS'Jeffrey Eugenides'
p3152
aS'Sean S. Cunningham'
p3153
aS'Don McGuire'
p3154
aS'Marianne Maddalena'
p3155
aS'Sam Spiegel'
p3156
aS'Lem Dobbs'
p3157
aS'Carmine Coppola'
p3158
aS'Adam Herz'
p3159
aS'Jennifer Flackett'
p3160
aS'Boaz Yakin'
p3161
aS'Russell Harlan'
p3162
aS'Ivan Reitman'
p3163
aS'David Rayfiel'
p3164
aS'Penelope Spheeris'
p3165
aS'Michael Boughen'
p3166
aS'Don Hall'
p3167
aS'Kevin Williamson'
p3168
aS'Ben Cross'
p3169
aS'Rex Pickett'
p3170
aS'Jack Kinney'
p3171
aS'Jeffrey Nachmanoff'
p3172
aS'Richard Matheson'
p3173
aS'Cary Grant'
p3174
aS'Alec Guinness'
p3175
aS'John Gielgud'
p3176
aS'Jerry Goldsmith'
p3177
aS'Clark Gable'
p3178
aS'Judy Garland'
p3179
aS'Henry Fonda'
p3180
aS'Joan Fontaine'
p3181
aS'Patrick Stewart'
p3182
aS'Ben Stiller'
p3183
aS'Mike Medavoy'
p3184
aS'Tom Stoppard'
p3185
aS'Matt Stone'
p3186
aS'Ian McKellen'
p3187
aS'David Blocker'
p3188
aS"Judith O'Dea"
p3189
aS'Jacob Grimm'
p3190
aS'Amy Holden Jones'
p3191
aS'Kappei Yamaguchi'
p3192
aS'Roger Barton'
p3193
aS'Jean Arthur'
p3194
aS'Benjamin Bratt'
p3195
aS'Clark Hunter'
p3196
aS'Martin Brest'
p3197
aS'Lloyd Bridges'
p3198
aS'Wilford Brimley'
p3199
aS'Baz Luhrmann'
p3200
aS'Catherine McCormack'
p3201
aS'Lee Marvin'
p3202
aS'Strother Martin'
p3203
aS'Mary Elizabeth Mastrantonio'
p3204
aS'Samuel Hopkins Adams'
p3205
aS'Rose Byrne'
p3206
aS'Kenny Ortega'
p3207
aS'Robert E. Howard'
p3208
aS'Arthur Ibbetson'
p3209
aS"Maryam d'Abo"
p3210
aS'Sam Shepard'
p3211
aS'Alexandra Seros'
p3212
aS'Mark Protosevich'
p3213
aS'Max von Sydow'
p3214
aS'Harvey Korman'
p3215
aS'Ray Lovejoy'
p3216
aS'Nicole George'
p3217
aS'Tarsem Singh'
p3218
aS'John Megna'
p3219
aS'Happy Walters'
p3220
aS'Michael Hausman'
p3221
aS'Magda Szubanski'
p3222
aS'Dave Foley'
p3223
aS'Beau Flynn'
p3224
aS'Frances Fisher'
p3225
aS'Chris Chow'
p3226
aS'Ian Bryce'
p3227
aS'Bruce Bellamy'
p3228
aS'Butch Barbella'
p3229
aS'Alan Silvestri'
p3230
aS'Howard Shore'
p3231
aS'Raquel Castro'
p3232
aS'Diego Luna'
p3233
aS'Michael Constantine'
p3234
aS'Fred MacMurray'
p3235
aS'Stephen Susco'
p3236
aS'Eliot Ness'
p3237
aS'Pat Carroll'
p3238
aS'Emilia Fox'
p3239
aS'Barry Kemp'
p3240
aS'J.K. Simmons'
p3241
aS'Michael Pitt'
p3242
aS'Ned Tanen'
p3243
aS'Panna Rittikrai'
p3244
aS'Jason Mewes'
p3245
aS'Anne V. Coates'
p3246
aS'Hugh Grant'
p3247
aS'John Wayne'
p3248
aS'Marsha Garces Williams'
p3249
aS'Marc Forster'
p3250
aS'Peter Morgan'
p3251
aS'Robert Easton'
p3252
aS'Peter Faiman'
p3253
aS'Emmy Rossum'
p3254
aS'Heywood Gould'
p3255
aS'Brian Tyler'
p3256
aS'Graham Yost'
p3257
aS'Rya Kihlstedt'
p3258
aS'Roger Q. Denny'
p3259
aS'Samuel Goldwyn Jr.'
p3260
aS'Jim Handley'
p3261
aS'Craig Armstrong'
p3262
aS'John Roach'
p3263
aS'Kenzo Tsujimoto'
p3264
aS'Jennie Lew Tugend'
p3265
aS'David Levien'
p3266
aS'Rosemary Murphy'
p3267
aS'Chyler Leigh'
p3268
aS'Jason Friedberg'
p3269
aS'Mark Strong'
p3270
aS'Billy Ray'
p3271
aS'Miguel Bos\xc3\xa9'
p3272
aS'Susan Gauthier'
p3273
aS'Richard Rutowski'
p3274
aS'Stanley Blystone'
p3275
aS'Noble Willingham'
p3276
aS'David Winkler'
p3277
aS'F. Murray Abraham'
p3278
aS'Zach Helm'
p3279
aS'Amrish Puri'
p3280
aS'William Diehl'
p3281
aS'Aaron Ruell'
p3282
aS'Sarah Aubrey'
p3283
aS'Charles S. Haas'
p3284
aS'Jamie Anderson'
p3285
aS'Alison Owen'
p3286
aS'Floyd Crosby'
p3287
aS'Joseph L. Mankiewicz'
p3288
aS'Wolfgang Petersen'
p3289
aS'Joe Pesci'
p3290
aS"Mark O'Keefe"
p3291
aS'Donald Pleasence'
p3292
aS'Jada Pinkett Smith'
p3293
aS'Ken Nolan'
p3294
aS'Jonathan Nolan'
p3295
aS'Kazunori It\xc3\xb4'
p3296
aS'Sebastian Cabot'
p3297
aS'Ben Sharpsteen'
p3298
aS'Carter Burwell'
p3299
aS'Takenori Sent\xc3\xb4'
p3300
aS'Sam Mercer'
p3301
aS'David Foster'
p3302
aS'Charles Segars'
p3303
aS'William Petersen'
p3304
aS'A.J. Quinnell'
p3305
aS'Tone Loc'
p3306
aS'Nora Ephron'
p3307
aS'Gabriel Yared'
p3308
aS'Jason Schwartzman'
p3309
aS'Britt Ekland'
p3310
aS'Denholm Elliott'
p3311
aS'Lucy Liu'
p3312
aS'Seann William Scott'
p3313
aS'Hector Elizondo'
p3314
aS'Peter Chung'
p3315
aS'Efren Ramirez'
p3316
aS'Adolphe Menjou'
p3317
aS'David Hewlett'
p3318
aS'James Clavell'
p3319
aS'P.F. Kluge'
p3320
aS'Claire Forlani'
p3321
aS'Milos Forman'
p3322
aS'Jeff Vintar'
p3323
aS'John Forsythe'
p3324
aS'Billy Connolly'
p3325
aS'Meg Foster'
p3326
aS'John Frankenheimer'
p3327
aS'Farhan Akhtar'
p3328
aS'Hanno P\xc3\xb6schl'
p3329
aS'Tatsuya Fujiwara'
p3330
aS'David Lancaster'
p3331
aS'Richard Fleischer'
p3332
aS'Ken Kesey'
p3333
aS'Robert Riskin'
p3334
aS'Matthew Fox'
p3335
aS'Henry Bumstead'
p3336
aS'Terry Swinton'
p3337
aS'Paul Hernandez'
p3338
aS'Britt Robertson'
p3339
aS'Eva Kolodner'
p3340
aS'Joseph LoDuca'
p3341
aS'Gary Trousdale'
p3342
aS'Skip Woods'
p3343
aS'Brent Hanley'
p3344
aS'Chris Hanley'
p3345
aS'Corey Mandell'
p3346
aS'Daniel P. Hanley'
p3347
aS'David Webb Peoples'
p3348
aS'Dandan Song'
p3349
aS'Ron Livingston'
p3350
aS'Ethan Suplee'
p3351
aS'John Lone'
p3352
aS'Jason Moore'
p3353
aS'Suphachai Sittiaumponpan'
p3354
aS'Ramin Mebdy'
p3355
aS'William Roberts'
p3356
aS'Andrew Douglas'
p3357
aS'Lily Collins'
p3358
aS'Brent Briscoe'
p3359
aS'Stephen Surjik'
p3360
aS'Chase Ellison'
p3361
aS'Eric Adkins'
p3362
aS'Nicole de Boer'
p3363
aS'T.H. White'
p3364
aS'Andrew McElfresh'
p3365
aS'William S. Gilmore'
p3366
aS'Sam Chaiton'
p3367
aS'Eric Jenkins'
p3368
aS'Adri\xc3\xa1n Guerra'
p3369
aS'Miki Nakatani'
p3370
aS'Eric Cleworth'
p3371
aS'Nia Vardalos'
p3372
aS'David Sheffield'
p3373
aS'Mike Mitchell'
p3374
aS'John Blick'
p3375
aS'Eli Wallach'
p3376
aS'Gray Frederickson'
p3377
aS'Dana Stevens'
p3378
aS'Glenn Plummer'
p3379
aS'Joseph D. Pistone'
p3380
aS'Ingmar Bergman'
p3381
aS'Brian Cox'
p3382
aS'Humphrey Bogart'
p3383
aS'Christine Baranski'
p3384
aS'Lauren Bacall'
p3385
aS'Olivia Hetreed'
p3386
aS'Marlon Brando'
p3387
aS'Richard Burton'
p3388
aS'Barry Sonnenfeld'
p3389
aS'Robert Surtees'
p3390
aS'Peter Suschitzky'
p3391
aS'Steven Soderbergh'
p3392
aS'David Tattersall'
p3393
aS'Ted Tetzlaff'
p3394
aS'Barry Mendel'
p3395
aS'Timothy Spall'
p3396
aS'J\xc3\xa9r\xc3\xa9mie Renier'
p3397
aS'Gary Scott Thompson'
p3398
aS'Dong-Joo Kim'
p3399
aS'Peter Berg'
p3400
aS'Robert Benton'
p3401
aS'Bruce Beresford'
p3402
aS'Wendell Corey'
p3403
aS'Gustav Fr\xc3\xb6hlich'
p3404
aS'Jane Schonberger'
p3405
aS'Kan-Cheung Tsang'
p3406
aS'Christopher Doyle'
p3407
aS'Alison Doody'
p3408
aS'Antony Gibbs'
p3409
aS'Anupam Kher'
p3410
aS'Alakina Mann'
p3411
aS'David Franzoni'
p3412
aS'Abby Mann'
p3413
aS'Brad Anderson'
p3414
aS'Manmohan Singh'
p3415
aS'Barry W. Blaustein'
p3416
aS'Craig Bierko'
p3417
aS'Julian Blaustein'
p3418
aS'Adolph Green'
p3419
aS'Kenneth Ross'
p3420
aS'Herman Bing'
p3421
aS'Leonardo Benvenuti'
p3422
aS'John McNaughton'
p3423
aS'Nick Moore'
p3424
aS'Benjam\xc3\xadn Fern\xc3\xa1ndez'
p3425
aS'Frank Tidy'
p3426
aS'Troy Garity'
p3427
aS'Greg Hicks'
p3428
aS'Joe Wizan'
p3429
aS'Chris Klein'
p3430
aS'Richard Griffiths'
p3431
aS'Jonny Lee Miller'
p3432
aS'Bruno Rubeo'
p3433
aS'Meat Loaf'
p3434
aS'John McTiernan'
p3435
aS'Regina King'
p3436
aS'Ray Milland'
p3437
aS'Toshir\xc3\xb4 Mifune'
p3438
aS'Dale Midkiff'
p3439
aS'Hugh A. Robertson'
p3440
aS'Brenda Chapman'
p3441
aS'Ron Mita'
p3442
aS'Robert Michael Geisler'
p3443
aS'David L. Wolper'
p3444
aS'Adam Alleca'
p3445
aS'Robert E. Sherwood'
p3446
aS'Ramin Djawadi'
p3447
aS'Irvine Welsh'
p3448
aS'Dominic Sena'
p3449
aS'Stuart Beattie'
p3450
aS'Nina Petri'
p3451
aS'Andrew Davies'
p3452
aS'Mitsuhisa Ishikawa'
p3453
aS'Michele Berk'
p3454
aS'Lisa Zeno Churgin'
p3455
aS'Lawrence Hauben'
p3456
aS'Mark Rosner'
p3457
aS'Alex Litvak'
p3458
aS'Richard Grandpierre'
p3459
aS'Bob Powell'
p3460
aS'Jeff Freeman'
p3461
aS'Stanley Weiser'
p3462
aS'Geraldine Chaplin'
p3463
aS'Joseph A. Carpenter'
p3464
aS'Chuck Pacheco'
p3465
aS'Charles Dickens'
p3466
aS'Dean Devlin'
p3467
aS'Steve Rudnick'
p3468
aS'Roger Donaldson'
p3469
aS'Stanley Donen'
p3470
aS'Melvyn Douglas'
p3471
aS'Stan Margulies'
p3472
aS'Ted D. McCord'
p3473
aS'William Hoy'
p3474
aS'Lawrence Sher'
p3475
aS'John Cazale'
p3476
aS'Don McEnery'
p3477
aS'George S. Clinton'
p3478
aS'Edward Arnold'
p3479
aS'Bill Graham'
p3480
aS'Annie McEnroe'
p3481
aS'Jamie Draven'
p3482
aS'Walter Matthau'
p3483
aS'Mary Sweeney'
p3484
aS'Marti Noxon'
p3485
aS'Russel Crouse'
p3486
aS'Louis Nowra'
p3487
aS'Cary Brokaw'
p3488
aS'Wilfred Jackson'
p3489
aS'Ray Stevenson'
p3490
aS'William Prochnau'
p3491
aS'Seth Flaum'
p3492
aS'Corey Yuen'
p3493
aS'James Agee'
p3494
aS'Lee Daniel'
p3495
aS'Rick Parks'
p3496
aS'Duncan Kenworthy'
p3497
aS'Brandon Merrill'
p3498
aS'Mark Schwahn'
p3499
aS'Claudio Argento'
p3500
aS'Sidney Buchman'
p3501
aS'Peter Buchman'
p3502
aS'Edward R. Pressman'
p3503
aS'Ron Eldard'
p3504
aS'Michael Jacobs'
p3505
aS'John Randolph'
p3506
aS'Arthur Baker'
p3507
aS'Jean Hagen'
p3508
aS'Erich K\xc3\xa4stner'
p3509
aS'Daniel Stern'
p3510
aS'Kathryn Tucker'
p3511
aS'Danielle Alexandra'
p3512
aS'Dalton Trumbo'
p3513
aS'Giovanni Ribisi'
p3514
aS'Joely Richardson'
p3515
aS'Michael Bates'
p3516
aS'John Ritter'
p3517
aS'Alan Rickman'
p3518
aS'Tim Roth'
p3519
aS'Isabella Rossellini'
p3520
aS'Theo van de Sande'
p3521
aS'Charles McKeown'
p3522
aS'Walter Murch'
p3523
aS'Johnny Klimek'
p3524
aS'Tina Fey'
p3525
aS'Michel Litvak'
p3526
aS'Michael Hogan'
p3527
aS'Sarah Kernochan'
p3528
aS'Wilhelm Grimm'
p3529
aS'Kwok-Fai Yeung'
p3530
aS'Bill Sage'
p3531
aS'Harry Gregson-Williams'
p3532
aS'David S. Ward'
p3533
aS'William Gibson'
p3534
aS'Joe Pytka'
p3535
aS'Bengt Ekerot'
p3536
aS'Jeff Danna'
p3537
aS'Gary Goldman'
p3538
aS'Clint Mansell'
p3539
aS'Gary Goldman'
p3540
aS'Bernd Eichinger'
p3541
aS'Harry Keller'
p3542
aS'Tom Dey'
p3543
aS'Jacob Vargas'
p3544
aS'Angus Macfadyen'
p3545
aS'Bernie Mac'
p3546
aS'Elda Ferri'
p3547
aS'Jason Newmark'
p3548
aS'Michael Miner'
p3549
aS'Cylk Cozart'
p3550
aS'Michael Gornick'
p3551
aS'Simon Kinberg'
p3552
aS'Guy Hamilton'
p3553
aS'Eddie Griffin'
p3554
aS'James Gandolfini'
p3555
aS'Rhett Reese'
p3556
aS'Karan Kashyap'
p3557
aS'Kim Staunton'
p3558
aS'Peter Gallagher'
p3559
aS'Thom Noble'
p3560
aS'Michael J. Pollard'
p3561
aS'James Garner'
p3562
aS'Roy Huggins'
p3563
aS'Judith Vittet'
p3564
aS'Lee Tergesen'
p3565
aS'Ross Malinger'
p3566
aS'John Pogue'
p3567
aS'Agata Buzek'
p3568
aS'Shigesato Itoi'
p3569
aS'Kevin Donovan'
p3570
aS'Boris Leven'
p3571
aS'Mark Barrett'
p3572
aS'Alan Uger'
p3573
aS'J\xc3\xbcrgen Knieper'
p3574
aS'Krzysztof Komeda'
p3575
aS'Richard Pearson'
p3576
aS'Don Brodie'
p3577
aS'William D. Wittliff'
p3578
aS'Kevin Bray'
p3579
aS'Eleanor Bergstein'
p3580
aS'Clayton Townsend'
p3581
aS'Michael Tolkin'
p3582
aS'Oliver Stokowski'
p3583
aS'Michael Gross'
p3584
aS'Peter Briggs'
p3585
aS'Gloria Katz'
p3586
aS'Simon Wells'
p3587
aS'David A. Armstrong'
p3588
aS'Guy Pratt'
p3589
aS'V\xc3\xadctor Andr\xc3\xa9s Catena'
p3590
aS'Alec Coppel'
p3591
aS'Peter Grant'
p3592
aS'Ian Watson'
p3593
aS'James R. Webb'
p3594
aS'Patrick Renna'
p3595
aS'Karen Janszen'
p3596
aS'Thea von Harbou'
p3597
aS'Larry Karaszewski'
p3598
aS'David Freeman'
p3599
aS'William Broyles Jr.'
p3600
aS'Ron Underwood'
p3601
aS'Murray Schisgal'
p3602
aS'John Lindley'
p3603
aS'Eric Deulen'
p3604
aS'Allan Carr'
p3605
aS'Rae Sanchini'
p3606
aS'Brent Goldberg'
p3607
aS'Roy Kinnear'
p3608
aS'Richard Epcar'
p3609
aS'Hilary Duff'
p3610
aS'Maurice Richlin'
p3611
aS'Sara Parriott'
p3612
aS'Steve Schwartz'
p3613
aS'Max Allan Collins'
p3614
aS'Dan Gordon'
p3615
aS'Vicellous Shannon'
p3616
aS'Mike Judge'
p3617
aS'Adrian Biddle'
p3618
aS'Christian Bale'
p3619
aS'Bernardo Bertolucci'
p3620
aS'William Baldwin'
p3621
aS'Adam Baldwin'
p3622
aS'Alec Baldwin'
p3623
aS'Elmer Bernstein'
p3624
aS'Elizabeth Berridge'
p3625
aS'Halle Berry'
p3626
aS'John Gatins'
p3627
aS'Vivian Pickles'
p3628
aS'Alberto Grimaldi'
p3629
aS'Stuart Blumberg'
p3630
aS'Neil Meron'
p3631
aS'Ronald Harwood'
p3632
aS'Marc Bienstock'
p3633
aS'Jean Simmons'
p3634
aS'Talia Shire'
p3635
aS"Olivia d'Abo"
p3636
aS'Martin Short'
p3637
aS'Edward Zwick'
p3638
aS'Rawson Marshall Thurber'
p3639
aS'Lars von Trier'
p3640
aS'Cybill Shepherd'
p3641
aS'Susan Downey'
p3642
aS'Joseph Barbera'
p3643
aS'Armyan Bernstein'
p3644
aS'John Schwartzman'
p3645
aS'Dominic West'
p3646
aS'Dickie Jones'
p3647
aS'John Goodman'
p3648
aS'Valeria Golino'
p3649
aS'Cuba Gooding Jr.'
p3650
aS'Jennifer Grey'
p3651
aS'Allen Joseph'
p3652
aS'Stan Wlodkowski'
p3653
aS'Fred Ward'
p3654
aS'Michael Apted'
p3655
aS'Jon Cryer'
p3656
aS'Billy Crudup'
p3657
aS'Cameron Crowe'
p3658
aS'John Schneider'
p3659
aS'Ice Cube'
p3660
aS'Henry Czerny'
p3661
aS'Tatsuya Nakadai'
p3662
aS'Buting Yang'
p3663
aS'Edna Ruth Paul'
p3664
aS'Tony Geiss'
p3665
aS'Gerry Hambling'
p3666
aS'Philip Eisner'
p3667
aS'Fred Wolf'
p3668
aS'Michael Katims'
p3669
aS'Jean Louisa Kelly'
p3670
aS'Debbie Allen'
p3671
aS'Lewis Carroll'
p3672
aS'Ren\xc3\xa9 Besson'
p3673
aS'Y\xc3\xb4ji Matsuda'
p3674
aS'Sarah Clarke'
p3675
aS'Don Ellis'
p3676
aS'Melisa Wallack'
p3677
aS'David Gale'
p3678
aS'David Griffiths'
p3679
aS'Charles Evans'
p3680
aS'Hilton A. Green'
p3681
aS'Eihi Shiina'
p3682
aS'Fann Wong'
p3683
aS'Chris Chesser'
p3684
aS'Robbi Morgan'
p3685
aS'Jena Malone'
p3686
aS'Lisa Eilbacher'
p3687
aS'Kathryn Erbe'
p3688
aS'Irene Miracle'
p3689
aS'Roger Towne'
p3690
aS'Zooey Deschanel'
p3691
aS'Sukanya Vongsthapat'
p3692
aS'Caleb Deschanel'
p3693
aS'Xavier Cook'
p3694
aS'Evan A. Lottman'
p3695
aS'The Reds'
p3696
aS'Danny McBride'
p3697
aS'Lianne Halfon'
p3698
aS'Tom Schulman'
p3699
aS'Ashley Scott'
p3700
aS'Chuck Barris'
p3701
aS'Aaron Zigman'
p3702
aS'Andrew Z. Davis'
p3703
aS'Walter Hill'
p3704
aS'Simon Beaufoy'
p3705
aS'Richard Kiel'
p3706
aS'Eduardo S\xc3\xa1nchez'
p3707
aS'Gaspar No\xc3\xa9'
p3708
aS'Sung-bo Shim'
p3709
aS'Arthur Albert'
p3710
aS'Howard Baldwin'
p3711
aS'Kevin Smith'
p3712
aS'Ravel Centeno-Rodriguez'
p3713
aS'Dario Marianelli'
p3714
aS'Hawk Koch'
p3715
aS'Normand Corbeil'
p3716
aS"Ernesto 'Che' Guevara"
p3717
aS'Ridley Scott'
p3718
aS'Mervyn LeRoy'
p3719
aS'Don Mancini'
p3720
aS'Ken Leung'
p3721
aS'Martin Shafer'
p3722
aS'Leo McKern'
p3723
aS'William Shakespeare'
p3724
aS'Peter Sellers'
p3725
aS'Michael Barnathan'
p3726
aS'Liev Schreiber'
p3727
aS'Ally Sheedy'
p3728
aS'William Shatner'
p3729
aS'Dean Tavoularis'
p3730
aS'Robert F. Newmyer'
p3731
aS'Aleksandr Kaydanovskiy'
p3732
aS'Ry\xc3\xbbz\xc3\xb4 Kikushima'
p3733
aS'Mateo Gil'
p3734
aS'Gregory Widen'
p3735
aS'J. Campbell Bruce'
p3736
aS'David M. Dunlap'
p3737
aS'Norman Taurog'
p3738
aS'Marcus Nispel'
p3739
aS'Robbie Robertson'
p3740
aS'Sam Rockwell'
p3741
aS'David R. Ellis'
p3742
aS'Asche & Spencer'
p3743
aS'R.E.M.'
p3744
aS'Johnny Knoxville'
p3745
aS'Shinobu Hashimoto'
p3746
aS'Mary Lambert'
p3747
aS'Ashton Kutcher'
p3748
aS'LL Cool J'
p3749
aS'Craig Parkinson'
p3750
aS'Quincy Jones'
p3751
aS'McG'
p3752
aS'Louise Lemoine Torr\xc3\xa8s'
p3753
aS'David C. Fein'
p3754
aS'Ken Adam'
p3755
aS'Beatrice Straight'
p3756
aS'John Glover'
p3757
aS'William Goldman'
p3758
aS'Steven Brand'
p3759
aS'Paul Michael Glaser'
p3760
aS'Philip Glass'
p3761
aS'Jackie Gleason'
p3762
aS'Scott Glenn'
p3763
aS'Lillian Gish'
p3764
aS'Bob Misiorowski'
p3765
aS'Jerry Tokofsky'
p3766
aS'Stephen Dillane'
p3767
aS'Peter Riche'
p3768
aS'Giovanni Arpino'
p3769
aS'Frank Pierson'
p3770
aS'Robert Thoeren'
p3771
aS'Tom Engelman'
p3772
aS'Robert Engelman'
p3773
aS'Ruocheng Ying'
p3774
aS'Kent Beyda'
p3775
aS'Mauricio Lopez'
p3776
aS'Arthur P. Jacobs'
p3777
aS'Joe Connelly'
p3778
aS'Mercedes Mor\xc3\xa1n'
p3779
aS'Paul Feig'
p3780
aS'Jerome Hellman'
p3781
aS'Erin Cressida Wilson'
p3782
aS'Kenyon Hopkins'
p3783
aS'James Newton Howard'
p3784
aS'Ross Grayson Bell'
p3785
aS'Craig Pruess'
p3786
aS'James Dearden'
p3787
aS'Fran\xc3\xa7ois Berl\xc3\xa9and'
p3788
aS'Anthony Dod Mantle'
p3789
aS'Arthur Hailey'
p3790
aS'Rick Shaine'
p3791
aS'Alex Wurman'
p3792
aS'Jim Cash'
p3793
aS'Kevin Fox'
p3794
aS'Oren Koules'
p3795
aS'Gian Maria Volont\xc3\xa8'
p3796
aS'Carlos Gallardo'
p3797
aS'Erich von Stroheim'
p3798
aS"Dan O'Herlihy"
p3799
aS'Lisa Gerrard'
p3800
aS'Shannyn Sossamon'
p3801
aS'Mark Rosman'
p3802
aS'Richard Lester'
p3803
aS'Peter Maas'
p3804
aS'Lawrence Konner'
p3805
aS'Ariel Gade'
p3806
aS'David Swift'
p3807
aS'Robert Teitel'
p3808
aS'Wolfgang Reitherman'
p3809
aS'Laurie Craig'
p3810
aS'Cary Fukunaga'
p3811
aS'Orian Williams'
p3812
aS'Guy Heeley'
p3813
aS'Justin Long'
p3814
aS'The Newton Brothers'
p3815
aS'Gregory Smith'
p3816
aS'Taylor Simpson'
p3817
aS'Ted Levine'
p3818
aS'Laurie MacDonald'
p3819
aS'Irvin Kershner'
p3820
aS'John Hopkins'
p3821
aS'David Wechter'
p3822
aS'Frank McCarthy'
p3823
aS'Olivia DeJonge'
p3824
aS'Woody Richman'
p3825
aS'Logan Lerman'
p3826
aS'Scott Schwartz'
p3827
aS'Stephen Mazur'
p3828
aS'Kevin Reynolds'
p3829
aS'Betty Comden'
p3830
aS'Stephenie Meyer'
p3831
aS'Michael A. Pierce'
p3832
aS'Michael Pe\xc3\xb1a'
p3833
aS'Terence Young'
p3834
aS'David Brin'
p3835
aS'John Cornell'
p3836
aS'Talisa Soto'
p3837
aS'Diana Rathbun'
p3838
aS'Mogens Rukov'
p3839
aS'Shuler Hensley'
p3840
aS'Omar Sharif'
p3841
aS'Julio Macat'
p3842
aS'Izabella Scorupco'
p3843
aS'Alicia Witt'
p3844
aS'Annabella Sciorra'
p3845
aS'Tony Scott'
p3846
aS'George C. Scott'
p3847
aS'Michael York'
p3848
aS'George Segal'
p3849
aS'Kyra Sedgwick'
p3850
aS'Matthew Pleszewicz'
p3851
aS'Fernando Meirelles'
p3852
aS'Linda Fiorentino'
p3853
aS'Laurence Fishburne'
p3854
aS'Carrie Fisher'
p3855
aS'Bridget Fonda'
p3856
aS'Oliver Stapleton'
p3857
aS'John Ford'
p3858
aS'Jonathan Frakes'
p3859
aS'Brendan Fraser'
p3860
aS'Mae Clarke'
p3861
aS'William Forsythe'
p3862
aS'Ziyi Zhang'
p3863
aS'Michael Giacchino'
p3864
aS'Catherine Hicks'
p3865
aS'Russell Means'
p3866
aS'Elaine May'
p3867
aS'Roger Spottiswoode'
p3868
aS'Andrew Gunn'
p3869
aS'Tony Grisoni'
p3870
aS'Kevin Stitt'
p3871
aS'Richard Guay'
p3872
aS'Jim Clark'
p3873
aS'Patrick Cassavetti'
p3874
aS'Stela Georgieva'
p3875
aS'Saul Zaentz'
p3876
aS'Breck Eisner'
p3877
aS'Brian J. Gilbert'
p3878
aS'Serena Scott Thomas'
p3879
aS'Ryan Hurst'
p3880
aS'Robert D. San Souci'
p3881
aS'Rob Maxey'
p3882
aS'Mark Henley'
p3883
aS'Anthony Quinn'
p3884
aS'Frank McRae'
p3885
aS'Matt Sherring'
p3886
aS'Tyrone Power'
p3887
aS'Barbara Tulliver'
p3888
aS'Jami Gertz'
p3889
aS'Thomas E. Ackerman'
p3890
aS'John Alcott'
p3891
aS'Amanda Bynes'
p3892
aS'Thierry Arbogast'
p3893
aS'Menahem Golan'
p3894
aS'Kathleen Rowell'
p3895
aS'Avi Arad'
p3896
aS'Cory Goodman'
p3897
aS'Nils Poppe'
p3898
aS'Albert Austin'
p3899
aS'Yash Chopra'
p3900
aS'Alex Cox'
p3901
aS'Jon Kilik'
p3902
aS'Eric Clapton'
p3903
aS'Arthur C. Clarke'
p3904
aS'Thomas Haden Church'
p3905
aS'Tom Clancy'
p3906
aS'Agatha Christie'
p3907
aS'Dan Bradley'
p3908
aS'Georges de Beauregard'
p3909
aS'Jim Sharman'
p3910
aS'Gabriel Grunfeld'
p3911
aS'Rhys Ifans'
p3912
aS'Tim Philo'
p3913
aS'Chris Wilson'
p3914
aS'Nicholas Kazan'
p3915
aS'Francis Edward Faragoh'
p3916
aS'Graeme Manson'
p3917
aS'Carrie Finklea'
p3918
aS'John de Borman'
p3919
aS'Nicola Piovani'
p3920
aS'Frank J. Urioste'
p3921
aS'David Benioff'
p3922
aS'Franka Potente'
p3923
aS'Charley Grapewin'
p3924
aS'Damon Lindelof'
p3925
aS'Richard Greatrex'
p3926
aS'Zach Staenberg'
p3927
aS'Ernest Lehman'
p3928
aS'Christine Whitaker'
p3929
aS'Thomas Mitchell'
p3930
aS'Keith Sharon'
p3931
aS'Jason Alexander'
p3932
aS'Daryn Okada'
p3933
aS'John Gilroy'
p3934
aS'Paul Hanson'
p3935
aS'Burkhard von Dallwitz'
p3936
aS'Jim Wilson'
p3937
aS'Terry Southern'
p3938
aS'Paula Weinstein'
p3939
aS'Ryan Reynolds'
p3940
aS'Ryan Phillippe'
p3941
aS'John Astin'
p3942
aS'Pamela Koffler'
p3943
aS'Tony Todd'
p3944
aS'Frank Herbert'
p3945
aS'Anne Baxter'
p3946
aS'David Hoberman'
p3947
aS'Meryl Streep'
p3948
aS'Eric Stoltz'
p3949
aS'Kathy Bates'
p3950
aS'Belinda Bauer'
p3951
aS'Madeleine Stowe'
p3952
aS'Sissy Spacek'
p3953
aS'Steven Bauer'
p3954
aS'Brent Spiner'
p3955
aS'James Spader'
p3956
aS'Lauren Shuler Donner'
p3957
aS'Heath Ledger'
p3958
aS'Ebbe Roe Smith'
p3959
aS'Jason Lee'
p3960
aS'Daisuke Ry\xc3\xbb'
p3961
aS'Seth Green'
p3962
aS'Ronald Ng'
p3963
aS'Man-Tat Ng'
p3964
aS'Graham Greene'
p3965
aS'Mel City'
p3966
aS'Barry Peterson'
p3967
aS'Patrick Cirillo'
p3968
aS'Rob Letterman'
p3969
aS'Ryan Kwanten'
p3970
aS'Scott Frank'
p3971
aS'Iz\xc3\xb4 Hashimoto'
p3972
aS'Klaus Wennemann'
p3973
aS'Olivier Martinez'
p3974
aS'Gordon Pollock'
p3975
aS'Andrew Bryniarski'
p3976
aS'Anne Pritchard'
p3977
aS'Kristanna Loken'
p3978
aS'Sylvie Landra'
p3979
aS'Dave Grusin'
p3980
aS'Richard DeManincor'
p3981
aS'Woody Gelman'
p3982
aS"Tung Cho 'Joe' Cheung"
p3983
aS'Rolfe Kent'
p3984
aS'Emile Sherman'
p3985
aS'Adam McKay'
p3986
aS'Zach Grenier'
p3987
aS'Jack Adams'
p3988
aS'Julio Fern\xc3\xa1ndez'
p3989
aS'Geoff Zanelli'
p3990
aS'Bob Dolman'
p3991
aS'William Wyler'
p3992
aS'Edgard Tenenbaum'
p3993
aS'Javier Navarrete'
p3994
aS'Bill Gerber'
p3995
aS'Jeff Wright'
p3996
aS'Jeffrey Wright'
p3997
aS'John Jympson'
p3998
aS'Ren\xc3\xa9 Dupont'
p3999
aS'Harper Lee'
p4000
aS'Caroline Kava'
p4001
aS'Ethan Smith'
p4002
aS'Gib Jaffe'
p4003
aS'Franklin Coen'
p4004
aS'Tim Maurice-Jones'
p4005
aS'Christopher De Vore'
p4006
aS'Oren Aviv'
p4007
aS'Jameson Thomas'
p4008
aS'Karen Kehela Sherwood'
p4009
aS'Phil Daniels'
p4010
aS'Mike Vitar'
p4011
aS'Mike Werb'
p4012
aS'David Julyan'
p4013
aS'Robert Mark Kamen'
p4014
aS'Eric Christian Olsen'
p4015
aS'Elizabeth Olsen'
p4016
aS'Eric Brevig'
p4017
aS'Maurice Evans'
p4018
aS'Robert L. Simpson'
p4019
aS'Warren Murphy'
p4020
aS'Christopher McQuarrie'
p4021
aS'Frank Aderias'
p4022
aS'Kevin Bisch'
p4023
aS'Bryan Goluboff'
p4024
aS'Vladimir Nabokov'
p4025
aS'John Roselius'
p4026
aS'Maria Bello'
p4027
aS'Wes Bentley'
p4028
aS'Lawrence Bender'
p4029
aS'Jim Van Wyck'
p4030
aS'Adam Brody'
p4031
aS'David Guggenheim'
p4032
aS'Viola Davis'
p4033
aS'Alain Lathi\xc3\xa8re'
p4034
aS'Pietro Scalia'
p4035
aS'Pascal Caucheteux'
p4036
aS'Warren Clarke'
p4037
aS'Richard Shepherd'
p4038
aS'Greg Taylor'
p4039
aS'David Morrell'
p4040
aS'Court Crandall'
p4041
aS'Casper Van Dien'
p4042
aS'Andrew Lloyd Webber'
p4043
aS'C\xc3\xa9cile Decugis'
p4044
aS'Jon Voight'
p4045
aS'Edward Biby'
p4046
aS'Vincenzo Cerami'
p4047
aS'Don Simpson'
p4048
aS'Russell Bobbitt'
p4049
aS'Henry De Vere Stacpoole'
p4050
aS'Dan Halsted'
p4051
aS'Lou Holtz Jr.'
p4052
aS'Katie Ford'
p4053
aS'Richard Widmark'
p4054
aS'Forest Whitaker'
p4055
aS'Joseph Calleia'
p4056
aS'James Whale'
p4057
aS'Sol Polito'
p4058
aS'B. Traven'
p4059
aS'Dianne Wiest'
p4060
aS'Cole Hauser'
p4061
aS'Duane Jones'
p4062
aS'James DeMonaco'
p4063
aS'Zuleikha Robinson'
p4064
aS'Grace Hayle'
p4065
aS'Jim Jarmusch'
p4066
aS'Famke Janssen'
p4067
aS'Charlotte Stewart'
p4068
aS'Michael Ironside'
p4069
aS'Guillaume Canet'
p4070
aS'Jeremy Theobald'
p4071
aS'Lynn-Holly Johnson'
p4072
aS'James Earl Jones'
p4073
aS'Diane Johnson'
p4074
aS'Will Patton'
p4075
aS'Robert Patrick'
p4076
aS'Scott H. Reiniger'
p4077
aS'Mandy Patinkin'
p4078
aS'Pier Paolo Pasolini'
p4079
aS'Chazz Palminteri'
p4080
aS'Anna Paquin'
p4081
aS'Joe Pantoliano'
p4082
aS'Leo Burmester'
p4083
aS'Toby Froud'
p4084
aS'Garth Craven'
p4085
aS'Christopher Plummer'
p4086
aS'David Stiven'
p4087
aS'Barry Gifford'
p4088
aS'Y\xc3\xbbko Tanaka'
p4089
aS'Jerry Stahl'
p4090
aS'Steve Carr'
p4091
aS'John Polson'
p4092
aS'Tim Blake Nelson'
p4093
aS'F. Blinn'
p4094
aS'Stefan Czapsky'
p4095
aS'William Blinn'
p4096
aS'Chuck Russell'
p4097
aS'Abraham Benrubi'
p4098
aS'Marg Helgenberger'
p4099
aS'Brian Helgeland'
p4100
aS'Sterling Hayden'
p4101
aS'Robert Hays'
p4102
aS'Tippi Hedren'
p4103
aS'John Heard'
p4104
aS'Matthew Robbins'
p4105
aS'Dana de Celis'
p4106
aS'Danilo Bach'
p4107
aS'Larry Drake'
p4108
aS'Ralf D. Bode'
p4109
aS'Peter Samuelson'
p4110
aS'Sergio Donati'
p4111
aS'James Caan'
p4112
aS'J.H. Wyman'
p4113
aS'Jonathan Breck'
p4114
aS'Harry Julian Fink'
p4115
aS'Bel\xc3\xa9n Rueda'
p4116
aS'Jane Campion'
p4117
aS'Charlotte Bront\xc3\xab'
p4118
aS'John Lesher'
p4119
aS'Hume Cronyn'
p4120
aS'Takeshi Seyama'
p4121
aS'Matt Craven'
p4122
aS'Sylvia Miles'
p4123
aS'Paul Sanchez'
p4124
aS'Herman Weigel'
p4125
aS'Peter McRobbie'
p4126
aS'Meir Teper'
p4127
aS'Tony Bancroft'
p4128
aS'Jos\xc3\xa9 Salcedo'
p4129
aS'Robert Prosky'
p4130
aS'Edgar Wright'
p4131
aS'Lisa Banes'
p4132
aS'Steven Shainberg'
p4133
aS'Jeffrey Reddick'
p4134
aS'Ari Schlossberg'
p4135
aS'Robert Sallin'
p4136
aS'Sarah Peirse'
p4137
aS'Kerry Washington'
p4138
aS'Pam Brady'
p4139
aS'Larry J. Franco'
p4140
aS'Andrew A. Kosove'
p4141
aS'Kathryn Beaumont'
p4142
aS'Patrick Magee'
p4143
aS'Charles Okun'
p4144
aS'Conrad Vernon'
p4145
aS'Leo Benvenuti'
p4146
aS'Ron Clements'
p4147
aS'Nicolas Winding Refn'
p4148
aS'Helen Fielding'
p4149
aS'Chloe Webb'
p4150
aS'John Hill'
p4151
aS'Stephen Trask'
p4152
aS'Chris Noonan'
p4153
aS'John Spencer'
p4154
aS'Dana Olsen'
p4155
aS'Marv Wolfman'
p4156
aS'Michael Taylor'
p4157
aS'Steve Bisley'
p4158
aS'Rub\xc3\xa9n Blades'
p4159
aS'Dion Beebe'
p4160
aS'Sandy Climan'
p4161
aS'Philip King'
p4162
aS'Sean Patrick Thomas'
p4163
aS'Jodi Picoult'
p4164
aS'Andrew Adamson'
p4165
aS'James Siegel'
p4166
aS'Sam Robards'
p4167
aS'Rory Culkin'
p4168
aS'Michael J. Wilson'
p4169
aS'Allan Ekelund'
p4170
aS'Ennio Morricone'
p4171
aS'A.E. Southon'
p4172
aS'Theresa Randle'
p4173
aS'Jordana Brewster'
p4174
aS'Robert Bloch'
p4175
aS'Lucy Fisher'
p4176
aS'Howard Fast'
p4177
aS'Allen Shapiro'
p4178
aS'Pierre Boulle'
p4179
aS'Scot Armstrong'
p4180
aS'Hisao Shirai'
p4181
aS'Marisa Tomei'
p4182
aS'Billy Bob Thornton'
p4183
aS'Jared Hess'
p4184
aS'Robin Tunney'
p4185
aS'Chris Tucker'
p4186
aS'Jeanne Tripplehorn'
p4187
aS'Armitage Trail'
p4188
aS'Raymond J. Barry'
p4189
aS'Kathleen Turner'
p4190
aS'Jean-Marc Barr'
p4191
aS'Clive Barker'
p4192
aS'Joe Dante'
p4193
aS'Blythe Danner'
p4194
aS'Stacey Dash'
p4195
aS'Frank Darabont'
p4196
aS'Guillaume Laurant'
p4197
aS'Robert Davi'
p4198
aS'Jaye Davidson'
p4199
aS'Kinka Usher'
p4200
aS'Thomas Kretschmann'
p4201
aS'Arnold Messer'
p4202
aS'Raquel Gardner'
p4203
aS'Antoine Fuqua'
p4204
aS'David Proval'
p4205
aS'Frederic Raphael'
p4206
aS'Kevin Wade'
p4207
aS'William N. Panzer'
p4208
aS'Trevor Macy'
p4209
aS'Larry Miller'
p4210
aS'Andrew Scheinman'
p4211
aS'Melissa M\xc3\xbcller'
p4212
aS'Preity Zinta'
p4213
aS'Frank Griebe'
p4214
aS'Gerry Lively'
p4215
aS'Spencer Treat Clark'
p4216
aS'Deborah Schindler'
p4217
aS'Malia Scotch Marmo'
p4218
aS'Wyck Godfrey'
p4219
aS'Emmanuelle Chriqui'
p4220
aS'William P. Perry'
p4221
aS'Judith Barsi'
p4222
aS'Carol Sobieski'
p4223
aS'Mel Bourne'
p4224
aS'Candela Pe\xc3\xb1a'
p4225
aS'Rick Bieber'
p4226
aS'Stephen Chow'
p4227
aS'Marc Klein'
p4228
aS'Dan Brown'
p4229
aS'Matt Greenberg'
p4230
aS'Paul Yurick'
p4231
aS'Norman Gay'
p4232
aS'Michael Bowen'
p4233
aS'John Collee'
p4234
aS'Takashi Shimura'
p4235
aS'Dick Hogan'
p4236
aS'Deepak Nayar'
p4237
aS'William Reynolds'
p4238
aS'Neil Cuthbert'
p4239
aS'Andrew Jimenez'
p4240
aS'Hugo Luczyc-Wyhowski'
p4241
aS'Jack Paglen'
p4242
aS'Ron Rifkin'
p4243
aS'Barrie M. Osborne'
p4244
aS'Walter F. Parkes'
p4245
aS'Enrique Urbizu'
p4246
aS'Ulrich Matthes'
p4247
aS'Keith Forsey'
p4248
aS'Paul Perez'
p4249
aS'Wiley Wiggins'
p4250
aS'Paul Falkenberg'
p4251
aS'Fele Mart\xc3\xadnez'
p4252
aS'David Ayer'
p4253
aS'James Hong'
p4254
aS'Maya Rudolph'
p4255
aS'Leslie Bohem'
p4256
aS'Stephen Campbell Moore'
p4257
aS'Arija Bareikis'
p4258
aS'Jeannie Long'
p4259
aS'Brent White'
p4260
aS'Scott Ambrozy'
p4261
aS'Andrew Braunsberg'
p4262
aS'Frank B. Gilbreth Jr.'
p4263
aS'Susan Cartsonis'
p4264
aS'Lila Caz\xc3\xa8s'
p4265
aS'Michael Barrie'
p4266
aS'David Klein'
p4267
aS'Lynn Siefert'
p4268
aS'Walter Coblenz'
p4269
aS'David Arnold'
p4270
aS'Callum McDougall'
p4271
aS'Rob Cohen'
p4272
aS'Zack Snyder'
p4273
aS'Miyu Irino'
p4274
aS'Robert Rodat'
p4275
aS'Warren Lewis'
p4276
aS'Nick Castle'
p4277
aS'Kimberly Williams-Paisley'
p4278
aS'Ronny Cox'
p4279
aS'Jo Prestia'
p4280
aS'Jimmy Iovine'
p4281
aS'Ginny Tyler'
p4282
aS'Rob Cowan'
p4283
aS'Iain Canning'
p4284
aS'Peter Coyote'
p4285
aS'Jake Busey'
p4286
aS'LeVar Burton'
p4287
aS'Gary Busey'
p4288
aS'Tamra Davis'
p4289
aS'Ellen Burstyn'
p4290
aS'Michael Wilson'
p4291
aS"John O'Brien"
p4292
aS'Verna Felton'
p4293
aS'Michael Finnell'
p4294
aS'Michael Lee Gogin'
p4295
aS'Anne Hathaway'
p4296
aS'Mike Myers'
p4297
aS'Jack Nicholson'
p4298
aS'Julianne Moore'
p4299
aS'Adrienne King'
p4300
aS'Demi Moore'
p4301
aS'Matthew McConaughey'
p4302
aS'Ewan McGregor'
p4303
aS'Cliff Martinez'
p4304
aS'Gary Oldman'
p4305
aS'Al Pacino'
p4306
aS'J.G. Ballard'
p4307
aS'Andrew Kevin Walker'
p4308
aS'Ally Walker'
p4309
aS'Ray Walston'
p4310
aS'Sven Nykvist'
p4311
aS'Tom Waits'
p4312
aS'Robert Wagner'
p4313
aS'John Steinbeck'
p4314
aS'Charles Belden'
p4315
aS'Francis Ford Coppola'
p4316
aS'Scott Heim'
p4317
aS'Lance Henriksen'
p4318
aS'Christopher Daniel Barnes'
p4319
aS'Rawle D. Lewis'
p4320
aS'Cher'
p4321
aS'Stockard Channing'
p4322
aS'Chevy Chase'
p4323
aS'James Coburn'
p4324
aS'Noah Hathaway'
p4325
aS'Rutger Hauer'
p4326
aS'Glenn Close'
p4327
aS'Mark Mylod'
p4328
aS'Irving Azoff'
p4329
aS'Terence Marsh'
p4330
aS'Dan Fogelman'
p4331
aS'Palmer West'
p4332
aS'Tim Allen'
p4333
aS'Chris Elliott'
p4334
aS'Joseph Kesselring'
p4335
aS'J.D. Zeik'
p4336
aS'Freeman A. Davies'
p4337
aS'Joe Rinaldi'
p4338
aS'Tetsur\xc3\xb4 Tanba'
p4339
aS'Alexander Payne'
p4340
aS'Samuel Le Bihan'
p4341
aS'Jack Bernstein'
p4342
aS'Frank Morgan'
p4343
aS'James Baskett'
p4344
aS'Ry\xc3\xbbnosuke Akutagawa'
p4345
aS'Dean Cundey'
p4346
aS'Frank Finlay'
p4347
aS'Mark Harmon'
p4348
aS'Renny Harlin'
p4349
aS'Marcia Gay Harden'
p4350
aS'John Hannah'
p4351
aS'William H. Clothier'
p4352
aS'Philip Baker Hall'
p4353
aS'Kevin Peter Hall'
p4354
aS'Charles Durning'
p4355
aS'Tony Moran'
p4356
aS'Verna Harrah'
p4357
aS'Paul Scofield'
p4358
aS'Susan Shilliday'
p4359
aS'Michael De Luca'
p4360
aS'Steve Lemme'
p4361
aS'Ken Shadie'
p4362
aS'Les Mayfield'
p4363
aS'Richard Gibbs'
p4364
aS'Bin Wang'
p4365
aS'Gary Gold'
p4366
aS'Michael Saltzman'
p4367
aS'Drake Sather'
p4368
aS'Christian Berkel'
p4369
aS'Solveig Dommartin'
p4370
aS'Audrey Wells'
p4371
aS'Jonathan Cavendish'
p4372
aS'Elizabeth Boller'
p4373
aS'Patrick McMahon'
p4374
aS'Dimitri Tiomkin'
p4375
aS"Pat O'Connor"
p4376
aS'Bruce A. Evans'
p4377
aS'Charlie Korsmo'
p4378
aS'David Arnott'
p4379
aS'Jim Henson'
p4380
aS'Barbara Hershey'
p4381
aS'Michael Dorman'
p4382
aS'Swoosie Kurtz'
p4383
aS'Tom Rolf'
p4384
aS'Michael Ondaatje'
p4385
aS'Minoru Jingo'
p4386
aS'John Rhys-Davies'
p4387
aS'Bennett Salvay'
p4388
aS'John Hora'
p4389
aS'Alan B. McElroy'
p4390
aS'Stephan Zacharias'
p4391
aS'Peter Bellwood'
p4392
aS'Stefania Casini'
p4393
aS'Mie Hama'
p4394
aS'Mike Flanagan'
p4395
aS'Barry Gibb'
p4396
aS'Daryl Isaacs'
p4397
aS'Tom Holland'
p4398
aS'D.V. DeVincentis'
p4399
aS'Christopher Wood'
p4400
aS'Chun-hyeong Lim'
p4401
aS'Simon Micha\xc3\xabl'
p4402
aS'Eileen Atkins'
p4403
aS'Tod Davies'
p4404
aS'Ted Knight'
p4405
aS'John Swihart'
p4406
aS'Ira Newborn'
p4407
aS'Larry Ferguson'
p4408
aS'Alex Haley'
p4409
aS'Gina Philips'
p4410
aS'Busy Philipps'
p4411
aS'Jeremy Piven'
p4412
aS'W. Blake Herron'
p4413
aS'Lauren Lloyd'
p4414
aS'Bob Balaban'
p4415
aS'Joe Don Baker'
p4416
aS'Diane Baker'
p4417
aS'Shia LaBeouf'
p4418
aS'Cyril Hume'
p4419
aS'Mike Richardson'
p4420
aS'Jae-ho Song'
p4421
aS'David Reid'
p4422
aS'Minami Takayama'
p4423
aS'St\xc3\xa9phane Algoud'
p4424
aS'Deanna Oliver'
p4425
aS'Rupert Grint'
p4426
aS'Hiroshi Takahashi'
p4427
aS'Hirokata Takahashi'
p4428
aS'Samuel A. Peeples'
p4429
aS'Richard Marvin'
p4430
aS'Paul Giamatti'
p4431
aS'Eleanor David'
p4432
aS'Gregory Allen Howard'
p4433
aS'Ute Emmerich'
p4434
aS'Enrique Murciano'
p4435
aS'William Sadler'
p4436
aS'John Robinson'
p4437
aS'Linda Cardellini'
p4438
aS'Nanako Matsushima'
p4439
aS'Lucy Davis'
p4440
aS'Jonathan Demme'
p4441
aS'Cecil B. DeMille'
p4442
aS'Benicio Del Toro'
p4443
aS'James Wilson'
p4444
aS'Julian McMahon'
p4445
aS'Stacey Sher'
p4446
aS'Yong Dong'
p4447
aS'Brawley Nolte'
p4448
aS'Jarlath Conroy'
p4449
aS'Enrico Medioli'
p4450
aS'George Folsey Jr.'
p4451
aS'Albert Magnoli'
p4452
aS'Olek Krupa'
p4453
aS'Toto'
p4454
aS'Mitsuo Iwata'
p4455
aS'Hartley Power'
p4456
aS'Sam Jaffe'
p4457
aS'William Chartoff'
p4458
aS'Guy Ritchie'
p4459
aS'Michael G. Nathanson'
p4460
aS'Bruno Kirby'
p4461
aS'Robert Gordon'
p4462
aS'Virginia Cherrill'
p4463
aS'Patrick Marber'
p4464
aS'John Long'
p4465
aS'Beeban Kidron'
p4466
aS'Steve Golin'
p4467
aS'Gregory Hoblit'
p4468
aS'Eric McLeod'
p4469
aS'Julie Taymor'
p4470
aS'Oliver Eberle'
p4471
aS'Jeffrey Kramer'
p4472
aS'John Dighton'
p4473
aS'Barry Opper'
p4474
aS'Los Lobos'
p4475
aS'Luke Greenfield'
p4476
aS'Ben Edlund'
p4477
aS'Mark Levin'
p4478
aS'Lothar G. Buchheim'
p4479
aS'Jack Kehoe'
p4480
aS"N'Bushe Wright"
p4481
aS'Akshaye Khanna'
p4482
aS'David Garfield'
p4483
aS'Tim Van Rellim'
p4484
aS'Callum Blue'
p4485
aS'Michael Seresin'
p4486
aS'Becky Johnston'
p4487
aS'Trevor Albert'
p4488
aS'Julie Hagerty'
p4489
aS'Patty Jenkins'
p4490
aS'David Dorfman'
p4491
aS'Eric Fellner'
p4492
aS'Rei Sakuma'
p4493
aS'Robert Towne'
p4494
aS'Rip Torn'
p4495
aS'John Turturro'
p4496
aS'Stanley Tucci'
p4497
aS'William V. Skall'
p4498
aS'Newton Thomas Sigel'
p4499
aS'John F. Seitz'
p4500
aS'Dean Semler'
p4501
aS'Jack Warden'
p4502
aS'John Fusco'
p4503
aS'Willard Huyck'
p4504
aS'Amy Brenneman'
p4505
aS'Jeff Bridges'
p4506
aS'Charles Bronson'
p4507
aS'Mel Brooks'
p4508
aS'Clancy Brown'
p4509
aS'Tim Burton'
p4510
aS'Akio \xc3\x94tsuka'
p4511
aS'Jack Epps Jr.'
p4512
aS'Rosario Flores'
p4513
aS'Peter Stein'
p4514
aS'William Monahan'
p4515
aS'David Dobkin'
p4516
aS'Jesse Plemons'
p4517
aS'Reinhold Heil'
p4518
aS'Irene Mecchi'
p4519
aS'Nigel Galt'
p4520
aS'Bruce Feirstein'
p4521
aS'Leonard Bernstein'
p4522
aS'Joe Anderson'
p4523
aS'Oliver Hirschbiegel'
p4524
aS'Cooper Layne'
p4525
aS'Alfred Newman'
p4526
aS'Kim Hunter'
p4527
aS'Patrick Hamilton'
p4528
aS'Michael Fairman'
p4529
aS'Robert Elswit'
p4530
aS'Linda Hunt'
p4531
aS'Frederick Elmes'
p4532
aS'Jon Berg'
p4533
aS'Robert Mitchum'
p4534
aS'Mario Giordano'
p4535
aS'John Huston'
p4536
aS'Anjelica Huston'
p4537
aS'Jessica Campbell'
p4538
aS'Seth Grahame-Smith'
p4539
aS'Michel Abramowicz'
p4540
aS'Simon Moore'
p4541
aS'Richard Woodley'
p4542
aS'John Musker'
p4543
aS'Olivia Wilde'
p4544
aS'Jane Musky'
p4545
aS'Walter Mirisch'
p4546
aS'Oscar Pearce'
p4547
aS'Byron Howard'
p4548
aS'Patcharawan Patarakijjanon'
p4549
aS'Bryce Dallas Howard'
p4550
aS'Sidney Carroll'
p4551
aS'Aaron Seltzer'
p4552
aS'Fannie Flagg'
p4553
aS'Ant\xc3\xb3n Laguna'
p4554
aS'Tim Holt'
p4555
aS'David Suchet'
p4556
aS'Albert R. Broccoli'
p4557
aS'Barbara Broccoli'
p4558
aS'Peter Brocco'
p4559
aS'Carlos Saldanha'
p4560
aS'Tom McCarthy'
p4561
aS'Malcolm Johnson'
p4562
aS'Paul Zaza'
p4563
aS'Kimberly Elise'
p4564
aS'Max Thieriot'
p4565
aS'David Andrew Goldstein'
p4566
aS'Alida Valli'
p4567
aS'Alexandre Rodrigues'
p4568
aS'Julie Yorn'
p4569
aS'Tom Brady'
p4570
aS'Don Rhymer'
p4571
aS'John Lee Hancock'
p4572
aS'Todd Eckert'
p4573
aS'Karl Swenson'
p4574
aS'Ilan Eshkeri'
p4575
aS'Buck Sanders'
p4576
aS'S\xc3\xa9bastien Japrisot'
p4577
aS'Giustino Durano'
p4578
aS'Brett Ratner'
p4579
aS'James Patterson'
p4580
aS'Heather Graham'
p4581
aS'Robert Gould Shaw'
p4582
aS'Dennis Dugan'
p4583
aS'Ilan Mitchell-Smith'
p4584
aS'Fred Zinnemann'
p4585
aS'Chete Lera'
p4586
aS"Kevin O'Neill"
p4587
aS'Jonathan Hales'
p4588
aS'Dana Goldberg'
p4589
aS'Gary Chang'
p4590
aS'Diane Venora'
p4591
aS'Jim Taylor'
p4592
aS'Jack Thibeau'
p4593
aS'Barbara Bach'
p4594
aS'Billy Boyd'
p4595
aS'Sienna Guillory'
p4596
aS'Roger Avary'
p4597
aS'Jon Avnet'
p4598
aS'John G. Avildsen'
p4599
aS'John Van Tongeren'
p4600
aS'Yoshir\xc3\xb4 Muraki'
p4601
aS'Frederick Zollo'
p4602
aS'Harry Clive'
p4603
aS'Tyler Hoechlin'
p4604
aS'Alf Clausen'
p4605
aS'Christopher Kovaleski'
p4606
aS'Robert John Burke'
p4607
aS'David Marconi'
p4608
aS'Alex Young'
p4609
aS'Chris Kattan'
p4610
aS'Josef Rusnak'
p4611
aS'Jack Black'
p4612
aS'Francesca Annis'
p4613
aS'Patrick Godfrey'
p4614
aS'Bibi Andersson'
p4615
aS'Gary Goetzman'
p4616
aS'Amanda De Cadenet'
p4617
aS'James DeBello'
p4618
aS'Brad Krevoy'
p4619
aS'Jack Whittingham'
p4620
aS'David Arata'
p4621
aS'Justin Chambers'
p4622
aS'Richard Donner'
p4623
aS'Shannen Doherty'
p4624
aS'Garry Marshall'
p4625
aS'Philip K. Dick'
p4626
aS'Gemma Jones'
p4627
aS'Ulrich Thomsen'
p4628
aS'Gerald B. Greenberg'
p4629
aS'David Diamond'
p4630
aS'Lawrence Turman'
p4631
aS'Terry Zwigoff'
p4632
aS'John Turman'
p4633
aS'Paul Walker'
p4634
aS'Hunt Lowry'
p4635
aS'John Michael Hayes'
p4636
aS'Robert W. Cort'
p4637
aS'James Madio'
p4638
aS'Andrew Jacobson'
p4639
aS'Mack Swain'
p4640
aS'Oona Laurence'
p4641
aS'Philip Kaufman'
p4642
aS'Quinn K. Redeker'
p4643
aS'David O. Russell'
p4644
aS'Gareth Heal'
p4645
aS'Patrick Markey'
p4646
aS'Charles Bornstein'
p4647
aS'Conrad L. Hall'
p4648
aS'Bill Butler'
p4649
aS'Bill Butler'
p4650
aS'Alain Sarde'
p4651
aS'Christopher Bond'
p4652
aS'John Powell'
p4653
aS'Joe Hisaishi'
p4654
aS'Samuel Hadida'
p4655
aS'Jay Chandrasekhar'
p4656
aS'Grant Hill'
p4657
aS'Anton Rodgers'
p4658
aS'Rebecca Hall'
p4659
aS'Babaloo Mandel'
p4660
aS'Goblin'
p4661
aS'Jim Whitaker'
p4662
aS'Sean Daniel'
p4663
aS'Steve Coogan'
p4664
aS'Fred Frith'
p4665
aS'Michael C. Williams'
p4666
aS'Theodore Shapiro'
p4667
aS'Edward Woodward'
p4668
aS'Andrew Mason'
p4669
aS'Tony Ludwig'
p4670
aS'Ioan Gruffudd'
p4671
aS'Keith Wayne'
p4672
aS'William Makepeace Thackeray'
p4673
aS'Pamela Adlon'
p4674
aS'Noni White'
p4675
aS'Arturo P\xc3\xa9rez-Reverte'
p4676
aS'Chap Taylor'
p4677
aS'Rick Ramage'
p4678
aS'Irby Smith'
p4679
aS'Al Williams'
p4680
aS'Nathaniel M\xc3\xa9chaly'
p4681
aS'John Briley'
p4682
aS'Cynthia Rhodes'
p4683
aS'Stephen Hopkins'
p4684
aS'Harvey Stephens'
p4685
aS'Richard Gere'
p4686
aS'Gina Gershon'
p4687
aS'Michael J. Fox'
p4688
aS'Morgan Freeman'
p4689
aS'Jeff Goldblum'
p4690
aS'Linda Hamilton'
p4691
aS'Mel Gibson'
p4692
aS'Whoopi Goldberg'
p4693
aS'Matthew Lawrence'
p4694
aS'Tom Hanks'
p4695
aS'Teri Hatcher'
p4696
aS'Robert Stevenson'
p4697
aS'Alex Vincent'
p4698
aS'Harry Gittes'
p4699
aS'Perry Lopez'
p4700
aS'Paul Sandberg'
p4701
aS'James Jacks'
p4702
aS'Juan Ruiz Anch\xc3\xada'
p4703
aS'John L. Russell'
p4704
aS"Philip D'Antoni"
p4705
aS'Ranulph Fiennes'
p4706
aS'Roderick Thorp'
p4707
aS'Ron Yerxa'
p4708
aS'Richard Dreyfuss'
p4709
aS'Brad Dourif'
p4710
aS'Robert Downey Jr.'
p4711
aS'Walt Disney'
p4712
aS'Minnie Driver'
p4713
aS'Kirsten Dunst'
p4714
aS'Peggy Webling'
p4715
aS'Andrew Miller'
p4716
aS'Cate Blanchett'
p4717
aS'Dax Flame'
p4718
aS'Doug Mitchell'
p4719
aS'Caryn Lucas'
p4720
aS'David Sullivan'
p4721
aS'Stanford C. Allen'
p4722
aS'Ashutosh Gowariker'
p4723
aS'Gary Gilbert'
p4724
aS'Teri Polo'
p4725
aS'Katharine Ross'
p4726
aS'Gena Rowlands'
p4727
aS'George A. Romero'
p4728
aS'Robert Romanus'
p4729
aS'Mickey Rooney'
p4730
aS'Janine Turner'
p4731
aS'Jon Turteltaub'
p4732
aS'Alan Ruck'
p4733
aS'Rita Hsiao'
p4734
aS'Scott Stewart'
p4735
aS'John Travolta'
p4736
aS'David Nicksay'
p4737
aS'William Goldenberg'
p4738
aS'Jim Czarnecki'
p4739
aS'Adam Beach'
p4740
aS'Brandon Lee'
p4741
aS'Christopher Lee'
p4742
aS'Uma Thurman'
p4743
aS'Elias Koteas'
p4744
aS'Christopher Lambert'
p4745
aS'John Landis'
p4746
aS'Fritz Lang'
p4747
aS'Heather Langenkamp'
p4748
aS'Ang Lee'
p4749
aS'Takeshi Kitano'
p4750
aS'Sterling Holloway'
p4751
aS'Hal Holbrook'
p4752
aS'Nelly'
p4753
aS'George Kennedy'
p4754
aS'DeForest Kelley'
p4755
aS'George Roy Hill'
p4756
aS'Peter Aalb\xc3\xa6k Jensen'
p4757
aS'Paul Hogan'
p4758
aS'Greg Kinnear'
p4759
aS'Ben Kingsley'
p4760
aS'Joe Batteer'
p4761
aS'Jean-Fran\xc3\xa7ois Richet'
p4762
aS'Evan Hunter'
p4763
aS'Barry Abrams'
p4764
aS'Sidney Blackmer'
p4765
aS'Abel Korzeniowski'
p4766
aS'Robert Carlyle'
p4767
aS'Michele Alexander'
p4768
aS'Br\xc3\xa1ulio Mantovani'
p4769
aS'Amanda Brown'
p4770
aS'Dudley Moore'
p4771
aS'Bob Woodward'
p4772
aS'Bronte Woodard'
p4773
aS'Alfred Molina'
p4774
aS'Bette Midler'
p4775
aS'Jason Kliot'
p4776
aS'William Hickey'
p4777
aS'Joan Harrison'
p4778
aS'John Harrison'
p4779
aS'Edward Albee'
p4780
aS'Erik Skjoldbj\xc3\xa6rg'
p4781
aS'Denise Di Novi'
p4782
aS'Kodi Smit-McPhee'
p4783
aS'Marc Abraham'
p4784
aS'William Hanna'
p4785
aS'Henning Moritzen'
p4786
aS'Jinpachi Nezu'
p4787
aS'Branko Lustig'
p4788
aS'Guillermo D\xc3\xadaz'
p4789
aS'Clyde Geronimi'
p4790
aS'Amir Mokri'
p4791
aS'Eddie Campbell'
p4792
aS'Charles Shyer'
p4793
aS'David Pirner'
p4794
aS'Malcolm X'
p4795
aS'Ricardo Mestres'
p4796
aS'Dun Tan'
p4797
aS'Steven Price'
p4798
aS'Daniel Craig'
p4799
aS'Deanna Dunagan'
p4800
aS'John Cameron'
p4801
aS'Guljit Bindra'
p4802
aS'Louis Garrel'
p4803
aS'Tobey Maguire'
p4804
aS'Jake Eberts'
p4805
aS'Robert N. Fried'
p4806
aS'Robert Salerno'
p4807
aS'Norbert Preuss'
p4808
aS'O. Nicholas Brown'
p4809
aS'Art Stevens'
p4810
aS'Mitchell Ryan'
p4811
aS'Michael S. Murphey'
p4812
aS'Shelley Thompson'
p4813
aS'Art LaFleur'
p4814
aS'Wendy Finerman'
p4815
aS'Atsushi Okui'
p4816
aS'Richard S. Wright'
p4817
aS'Elliot Lawrence'
p4818
aS'John Nolan'
p4819
aS'Gigi Levangie'
p4820
aS'Jane Adams'
p4821
aS'F\xc3\xa9licie Dutertre'
p4822
aS'Luis Carballar'
p4823
aS'Donald Kushner'
p4824
aS'Stuart Cornfeld'
p4825
aS'Todd Louiso'
p4826
aS'Patrice Ledoux'
p4827
aS'Tony Kaye'
p4828
aS'Forrest Carter'
p4829
aS'Robert Richardson'
p4830
aS'Paul Elliott'
p4831
aS'Gordon Willis'
p4832
aS'Randi Mayem Singer'
p4833
aS'Morgan Spurlock'
p4834
aS'Robert D. Wachs'
p4835
aS'Marianne Wibberley'
p4836
aS'Cormac Wibberley'
p4837
aS'Joachim Fest'
p4838
aS'Brad Halvorson'
p4839
aS'Jonathan Roberts'
p4840
aS'Erik Bergquist'
p4841
aS'Paul Soter'
p4842
aS'Steve Meerson'
p4843
aS'Peter M. Lenkov'
p4844
aS'Joel Soisson'
p4845
aS'Philip Van Doren Stern'
p4846
aS'Andy Tennant'
p4847
aS'Ivan Goff'
p4848
aS'Don Ameche'
p4849
aS'Trini Alvarado'
p4850
aS'David Tennant'
p4851
aS'Maria Conchita Alonso'
p4852
aS'N\xc3\xa9stor Almendros'
p4853
aS'Stewart Copeland'
p4854
aS'Billy Corgan'
p4855
aS'Irwin Allen'
p4856
aS'Joseph Ruben'
p4857
aS'Jackie Zabel'
p4858
aS'Pieter Bourke'
p4859
aS'Eric Newman'
p4860
aS'Charles S. Dutton'
p4861
aS'Shelley Duvall'
p4862
aS'Ed Wynn'
p4863
aS'Griffin Dunne'
p4864
aS'George Dzundza'
p4865
aS'Joel McNeely'
p4866
aS'Stuart Townsend'
p4867
aS'Shankar Mahadevan'
p4868
aS'Priscilla Lane'
p4869
aS'Stu Krieger'
p4870
aS'Michael Phillips'
p4871
aS'Elliott Kastner'
p4872
aS'Bo-Chu Chui'
p4873
aS'Chris Owen'
p4874
aS'Sean Covel'
p4875
aS'Jon Favreau'
p4876
aS'Aaron Taylor-Johnson'
p4877
aS'Rodrigo De la Serna'
p4878
aS'Justin Reinhardt'
p4879
aS'Tak Fujimoto'
p4880
aS'Freddie Francis'
p4881
aS'William A. Fraker'
p4882
aS'Britt Daniel'
p4883
aS'Heinrich Harrer'
p4884
aS'Kelly Rowland'
p4885
aS'John Davis'
p4886
aS'John Davis'
p4887
aS'Leslie Charteris'
p4888
aS'Barry Markowitz'
p4889
aS'Clayton Hartley'
p4890
aS'John Hart'
p4891
aS'Atli \xc3\x96rvarsson'
p4892
aS'John Logan'
p4893
aS'Phil Beauman'
p4894
aS'Chris Cooper'
p4895
aS'Peter Billingsley'
p4896
aS'Ehren McGhehey'
p4897
aS'A.J. Cook'
p4898
aS'Ken Iyadomi'
p4899
aS'Robert Siodmak'
p4900
aS'James Warner Bellah'
p4901
aS'Ellen Sandweiss'
p4902
aS'James Bobin'
p4903
aS'Corey Sienega'
p4904
aS'No\xc3\xablle Boisson'
p4905
aS'Christophe Gans'
p4906
aS'Albert S. Ruddy'
p4907
aS'Henri-Jacques Huet'
p4908
aS'Michael Lloyd'
p4909
aS'David Pinner'
p4910
aS'Kurt Wimmer'
p4911
aS'Ted Hope'
p4912
aS'Don Murphy'
p4913
aS'Masaru Sat\xc3\xb4'
p4914
aS'Cole Sprouse'
p4915
aS'Reynaldo Villalobos'
p4916
aS'Nicholas Hoult'
p4917
aS'Freddie Young'
p4918
aS'Jessica Bendinger'
p4919
aS'Antx\xc3\xb3n G\xc3\xb3mez'
p4920
aS'Goran Visnjic'
p4921
aS'Robert Bolt'
p4922
aS'Mikael Salomon'
p4923
aS'Jerzy Kosinski'
p4924
aS'Gina La Piana'
p4925
aS'Jean Marsh'
p4926
aS'Taryn Manning'
p4927
aS'Chris Nahon'
p4928
aS'Jared Lee Gosselin'
p4929
aS'Randall Wallace'
p4930
aS'Billy Gilbert'
p4931
aS'Brian Hannant'
p4932
aS'Diana Pe\xc3\xb1alver'
p4933
aS"James O'Barr"
p4934
aS'Colin Wilson'
p4935
aS'Roger Michell'
p4936
aS'Jim May'
p4937
aS'Adam Holender'
p4938
aS'Erik Feig'
p4939
aS'Larry Brezner'
p4940
aS'David Geffen'
p4941
aS'Diane Lane'
p4942
aS'Jude Law'
p4943
aS'Milla Jovovich'
p4944
aS'Ashley Judd'
p4945
aS'Harvey Keitel'
p4946
aS'Nicole Kidman'
p4947
aS'Val Kilmer'
p4948
aS'Stephen King'
p4949
aS'Kevin Kline'
p4950
aS'Li Sun'
p4951
aS'Michael Peyser'
p4952
aS'David Magee'
p4953
aS'Amber Valletta'
p4954
aS'Mario Van Peebles'
p4955
aS'Suzanne Pleshette'
p4956
aS'Lee Hall'
p4957
aS'K\xc3\xb4ji End\xc3\xb4'
p4958
aS'Charles H. Joffe'
p4959
aS'Pierre Bismuth'
p4960
aS'Shengyi Huang'
p4961
aS'Brian Reilly'
p4962
aS'Lorne Michaels'
p4963
aS'Daniel Day-Lewis'
p4964
aS'Matt Damon'
p4965
aS"Beverly D'Angelo"
p4966
aS'Edward Lewis'
p4967
aS"Vincent D'Onofrio"
p4968
aS'Willem Dafoe'
p4969
aS'Harald Kloser'
p4970
aS'Shekhar Kapur'
p4971
aS'Carol Kane'
p4972
aS'Janusz Kaminski'
p4973
aS'Madeline Kahn'
p4974
aS'Terry Jones'
p4975
aS'Angelina Jolie'
p4976
aS'Chris Brown'
p4977
aS'Leslie Waller'
p4978
aS'George Wing'
p4979
aS'David Kitay'
p4980
aS'Ned Dowd'
p4981
aS'Dennis Iliadis'
p4982
aS'Matthew Davis'
p4983
aS'Ry\xc3\xb4hei Suzuki'
p4984
aS'Gary Foster'
p4985
aS'Craig Kitson'
p4986
aS'Adam Bryant'
p4987
aS"Enzo Dell'Aquila"
p4988
aS'Roberts Blossom'
p4989
aS'Christopher Godsick'
p4990
aS'Keira Knightley'
p4991
aS'Elliot Abbott'
p4992
aS'Richard LaGravenese'
p4993
aS'Mark Steven Johnson'
p4994
aS'Josh Peck'
p4995
aS'Tch\xc3\xa9ky Karyo'
p4996
aS'Robert Fox'
p4997
aS'Jonathan Swift'
p4998
aS'Ernest R. Dickerson'
p4999
aS'Lorenzo di Bonaventura'
p5000
aS'Paz Vega'
p5001
aS'Celeste Holm'
p5002
aS'Bram Stoker'
p5003
aS'Peter Ustinov'
p5004
aS'Peter Snell'
p5005
aS'Dylan Smith'
p5006
aS'Christopher Tellefsen'
p5007
aS'John Pomeroy'
p5008
aS'John Norton'
p5009
aS'Clifton James'
p5010
aS'Christophe Rossignon'
p5011
aS'Benedict Fitzgerald'
p5012
aS'Chris Seward'
p5013
aS'Gabriel Damon'
p5014
aS'Richard Roxburgh'
p5015
aS'Wayne Powers'
p5016
aS'Andrea Guerra'
p5017
aS'John Bailey'
p5018
aS'Robin Hardy'
p5019
aS'Martin Freeman'
p5020
aS'Pierre Boileau'
p5021
aS'Robert Rossen'
p5022
aS'Thomas Narcejac'
p5023
aS'James Toback'
p5024
aS'Tom Kenny'
p5025
aS'Lawrence B. Marcus'
p5026
aS'Robert Evans'
p5027
aS'Pen Densham'
p5028
aS'William Horberg'
p5029
aS'Charlie Yeung'
p5030
aS'Victor Miller'
p5031
aS'Lenny von Dohlen'
p5032
aS'John Lafia'
p5033
aS'Maureen Mylander'
p5034
aS'Carol Baum'
p5035
aS'Uberto Pasolini'
p5036
aS'Carl Foreman'
p5037
aS'Robert Garland'
p5038
aS'Martin Hunter'
p5039
aS'David Brisbin'
p5040
aS'Bertha Navarro'
p5041
aS'Paul Girard Smith'
p5042
aS'Robert Presley'
p5043
aS'Valeriy Nikolaev'
p5044
aS'Martin Donovan'
p5045
aS'Nikki Blonsky'
p5046
aS'Annie Stewart'
p5047
aS'Franck Khalfoun'
p5048
aS'Meg Cabot'
p5049
aS'Thomas Harris'
p5050
aS'Justin Bartha'
p5051
aS'Georges Auric'
p5052
aS'Ted Field'
p5053
aS'David Valdes'
p5054
aS'Patricia Belcher'
p5055
aS'Marilyn Sokol'
p5056
aS'Robert Paynter'
p5057
aS'Amanda Seyfried'
p5058
aS'Joey Lauren Adams'
p5059
aS'Maud Adams'
p5060
aS'Jim Abrahams'
p5061
aS'Joss Ackland'
p5062
aS'Lee Grant'
p5063
aS'Fernando Bovaira'
p5064
aS'Robert F. Shugrue'
p5065
aS'Jon Hutman'
p5066
aS'Ashley Laurence'
p5067
aS'Jeff Groth'
p5068
aS'Elizabeth Mitchell'
p5069
aS'Thomas Dean Donnelly'
p5070
aS'Martine McCutcheon'
p5071
aS'Ping Lam Siu'
p5072
aS'Gottfried Huppertz'
p5073
aS'Wendy Makkena'
p5074
aS'Bobby Byrne'
p5075
aS'Roger Kumble'
p5076
aS'Mardik Martin'
p5077
aS'Sylvia Nasar'
p5078
aS'Marcia Nasatir'
p5079
aS'Sunil Perkash'
p5080
aS'Frederic Bovis'
p5081
aS'Chris Morgan'
p5082
aS'Jean Rabasse'
p5083
aS'Julie Costanzo'
p5084
aS'Mark Lowell'
p5085
aS'Warren Casey'
p5086
aS'Timothy Balme'
p5087
aS'Sam Hamm'
p5088
aS'Karl Walter Lindenlaub'
p5089
aS'Matthew F. Leonetti'
p5090
aS'Albert Zugsmith'
p5091
aS'Jonny Greenwood'
p5092
aS'Brunello Rondi'
p5093
aS'Tony Lawson'
p5094
aS'J.J. Connolly'
p5095
aS'Paul Giovanni'
p5096
aS'Mark McCorkle'
p5097
aS'David Self'
p5098
aS'T.M. Christopher'
p5099
aS'Boris Strugatskiy'
p5100
aS'Thelma Ritter'
p5101
aS'Janice Hampton'
p5102
aS'Arkadiy Strugatskiy'
p5103
aS'Levi Stubbs'
p5104
aS'William Daniels'
p5105
aS'Cathy Schulman'
p5106
aS'John Corbett'
p5107
aS'Alfred Gough'
p5108
aS'Daniel London'
p5109
aS'Masato Ide'
p5110
aS'Nicholas Meyer'
p5111
aS'Jonathan Mostow'
p5112
aS'Akira Terao'
p5113
aS'Shirley Eaton'
p5114
aS'Richard Price'
p5115
aS'Tom DeSanto'
p5116
aS'Howard Sackler'
p5117
aS'Linda Gottlieb'
p5118
aS'Paolo Bonacelli'
p5119
aS'Michael Bay'
p5120
aS'Paprika Steen'
p5121
aS'Peter Lord'
p5122
aS'Sam Spruell'
p5123
aS'Harry Lange'
p5124
aS'Andrew Macdonald'
p5125
aS'Bruce Surtees'
p5126
aS'Timothy Olyphant'
p5127
aS'Mike Bender'
p5128
aS'Bob Shaw'
p5129
aS'Gary Lockwood'
p5130
aS'Rob Schneider'
p5131
aS'P.A. Lundgren'
p5132
aS'Arne Schmidt'
p5133
aS'Catherine Zeta-Jones'
p5134
aS'Michele J. Wolff'
p5135
aS'Kathleen Glynn'
p5136
aS'Jack Nance'
p5137
aS'Andrea Sedl\xc3\xa1ckov\xc3\xa1'
p5138
aS'Christopher Kyle'
p5139
aS'Ron Nyswaner'
p5140
aS'Jeffrey Lau'
p5141
aS'Gaylen Ross'
p5142
aS'Daniel Moore'
p5143
aS'Pamela Wallace'
p5144
aS'Marcus Gilbert'
p5145
aS'Su Elliot'
p5146
aS'Steve Horowitz'
p5147
aS'Noah Baumbach'
p5148
aS'Michael Berry'
p5149
aS'Myron I. Kerstein'
p5150
aS'Garrett Fort'
p5151
aS'K\xc3\xb4ji Suzuki'
p5152
aS'Donna Roth'
p5153
aS'Michael Berg'
p5154
aS'Bill Corless'
p5155
aS'Kajol'
p5156
aS'John Carpenter'
p5157
aS'Tia Carrere'
p5158
aS'James Cameron'
p5159
aS'Neve Campbell'
p5160
aS'Steve Buscemi'
p5161
aS'Nicolas Cage'
p5162
aS'Pierce Brosnan'
p5163
aS'Sandra Bullock'
p5164
aS'Kenneth Branagh'
p5165
aS'Matthew Broderick'
p5166
aS'Richard Pryor'
p5167
aS'Randy Quaid'
p5168
aS'Aidan Quinn'
p5169
aS'Marco Brambilla'
p5170
aS'Haskell Wexler'
p5171
aS'Harvey Weinstein'
p5172
aS'Jerry Weintraub'
p5173
aS'Keenen Ivory Wayans'
p5174
aS'Marlon Wayans'
p5175
aS'Patrick Doyle'
p5176
aS'Gerrit Graham'
p5177
aS'William Hoffer'
p5178
aS'Michael Keaton'
p5179
aS'Emma Thomas'
p5180
aS'Kristi Zea'
p5181
aS'Jeb Stuart'
p5182
aS'Jay Hernandez'
p5183
aS'Elmore Leonard'
p5184
aS'David Mu\xc3\xb1oz'
p5185
aS'Sergio Leone'
p5186
aS'Virginie Ledoyen'
p5187
aS'Mimi Leder'
p5188
aS'Janet Leigh'
p5189
aS'Maryline Monthieux'
p5190
aS'Barry Levinson'
p5191
aS'Daniel Radcliffe'
p5192
aS'Nicholas Downs'
p5193
aS'Helmut Qualtinger'
p5194
aS'Elle Russ'
p5195
aS'Bob Griffin'
p5196
aS'Peter Dinklage'
p5197
aS'Dana Brunetti'
p5198
aS'Harley Peyton'
p5199
aS'Mick Jackson'
p5200
aS'Stanley Clarke'
p5201
aS'Elia Cmiral'
p5202
aS'Bill Conti'
p5203
aS'A. Kitman Ho'
p5204
aS'Paul Greengrass'
p5205
aS'Charles B. Wessler'
p5206
aS'Ernest Archer'
p5207
aS'Charles Cyphers'
p5208
aS'Ellen Greene'
p5209
aS'Gerald Di Pego'
p5210
aS'Zach Braff'
p5211
aS'Barry Josephson'
p5212
aS'Peter Dobson'
p5213
aS'Jean-Christophe Grang\xc3\xa9'
p5214
aS'Jong Lin'
p5215
aS'Stephen Daldry'
p5216
aS'Duane Adler'
p5217
aS"Patrick O'Brian"
p5218
aS'Hayao Miyazaki'
p5219
aS'Humphrey Cobb'
p5220
aS'Jo Swerling'
p5221
aS'Tina Hirsch'
p5222
aS'Billy Williams'
p5223
aS'Geoffrey Simpson'
p5224
aS'Harris Savides'
p5225
aS'Laura Harris'
p5226
aS'Milo Addica'
p5227
aS'William Mapother'
p5228
aS'Claude H\xc3\xa9roux'
p5229
aS'John Smith'
p5230
aS'Graham Greene'
p5231
aS'Scott Conrad'
p5232
aS'Daveigh Chase'
p5233
aS"George 'Buck' Flower"
p5234
aS'Charles Malik Whitfield'
p5235
aS'Michael Cooney'
p5236
aS'Hillary Seitz'
p5237
aS'Otto Sander'
p5238
aS'Seoung-Jae Cha'
p5239
aS'Ed Marx'
p5240
aS'Alfonso Cuar\xc3\xb3n'
p5241
aS'Jason Andrews'
p5242
aS'Carol Reed'
p5243
aS'Chris Gill'
p5244
aS'Stanley Mann'
p5245
aS'Steven Bernstein'
p5246
aS'Jim Jacobs'
p5247
aS'L\xc3\xa1szl\xc3\xb3 Kov\xc3\xa1cs'
p5248
aS'Bob Yari'
p5249
aS'Dennis Feldman'
p5250
aS'George Aliceson Tipton'
p5251
aS'Edward S. Feldman'
p5252
aS'Ueli Steiger'
p5253
aS'Simon Boswell'
p5254
aS'Dan Jinks'
p5255
aS'RZA'
p5256
aS'Robert Zemeckis'
p5257
aS'Billy Zane'
p5258
aS'Tom Stern'
p5259
aS'BD Wong'
p5260
aS'Reese Witherspoon'
p5261
aS'Kate Winslet'
p5262
aS'Donald Ogden Stewart'
p5263
aS'Ben Affleck'
p5264
aS'Michelle Yeoh'
p5265
aS'Robin Wright'
p5266
aS'Elijah Wood'
p5267
aS'Alvin Sargent'
p5268
aS'Lee Batchler'
p5269
aS'Don Carmody'
p5270
aS'Philip Dunne'
p5271
aS'Mike Farrell'
p5272
aS'Joe Hutshing'
p5273
aS'Jules Furthman'
p5274
aS'K\xc3\xa1tia Lund'
p5275
aS'Gene Colan'
p5276
aS'Lance Acord'
p5277
aS'Larry Clark'
p5278
aS'Jonah Smith'
p5279
aS'Lee Tamahori'
p5280
aS'Simon Pegg'
p5281
aS'Haley Joel Osment'
p5282
aS'Howard Cummings'
p5283
aS"Rosie O'Donnell"
p5284
aS'Joseph Gordon-Levitt'
p5285
aS'Alan Dean Foster'
p5286
aS'Jonathan Tucker'
p5287
aS'Michael Berryman'
p5288
aS'Ken Matsumoto'
p5289
aS'Kelly Matsumoto'
p5290
aS'Daniel York'
p5291
aS'Kate Hudson'
p5292
aS'Scatman Crothers'
p5293
aS'Joseph Cotten'
p5294
aS'Courteney Cox'
p5295
aS'Djimon Hounsou'
p5296
aS'Terrence Howard'
p5297
aS'Victor J. Kemper'
p5298
aS'Kelly Hu'
p5299
aS'Roger Pratt'
p5300
aS'Joseph Wiseman'
p5301
aS'Jean Shepherd'
p5302
aS'Jim Sheridan'
p5303
aS'Pumwaree Yodkamol'
p5304
aS'Henri Charri\xc3\xa8re'
p5305
aS'Homer H. Hickam Jr.'
p5306
aS'Coleen Gray'
p5307
aS'Tyra Ferrell'
p5308
aS'Matt Schulze'
p5309
aS'Michael Landes'
p5310
aS'Burt Lancaster'
p5311
aS'Anna Chancellor'
p5312
aS'Michael Tronick'
p5313
aS'Wladyslaw Szpilman'
p5314
aS'David L. Bushell'
p5315
aS'Robert F. Colesberry'
p5316
aS'Patrick Crowley'
p5317
aS'Paul Bettany'
p5318
aS'Lalit Marathe'
p5319
aS'Rod Taylor'
p5320
aS'Bill Borden'
p5321
aS'Chris Menges'
p5322
aS'Beverley Cross'
p5323
aS'Fredro Starr'
p5324
aS'Min-Woo Hyung'
p5325
aS'Kevin Grevioux'
p5326
aS'Harry Kleiner'
p5327
aS'Paul Rudd'
p5328
aS'John Milius'
p5329
aS'Dave Chappelle'
p5330
aS'Nicholas Stoller'
p5331
aS'Michael White'
p5332
aS'Andrew McAlpine'
p5333
aS'John Calley'
p5334
aS'Peter Webber'
p5335
aS'Kim Dickens'
p5336
aS'Nobuo Koyama'
p5337
aS'Edward Warschilka'
p5338
aS'John A. Keel'
p5339
aS'Mabel Rivera'
p5340
aS'Scott Silver'
p5341
aS'Charles Roven'
p5342
aS'Stuart Dryburgh'
p5343
aS'M.G. Sathya'
p5344
aS'William Kong'
p5345
aS'Stan Winston'
p5346
aS'Vincent Landay'
p5347
aS'Cerina Vincent'
p5348
aS'Danny McBride'
p5349
aS'Atsuko Tanaka'
p5350
aS'Margot Kidder'
p5351
aS'Richard Marden'
p5352
aS'Gary Lucchesi'
p5353
aS'Stirling Silliphant'
p5354
aS'Andre Dubus III'
p5355
aS'Michael Leeson'
p5356
aS'Junius Matthews'
p5357
aS'Jim Stark'
p5358
aS'Raffey Cassidy'
p5359
aS"John O'Brien"
p5360
aS'Shauna Robertson'
p5361
aS'John Murphy'
p5362
aS'Jonathan Bennett'
p5363
aS'.38 Special'
p5364
aS'Yat-Fei Wong'
p5365
aS'Christian Henson'
p5366
aS'Robert De Niro'
p5367
aS'Johnny Depp'
p5368
aS'Bo Derek'
p5369
aS'Jamie Lee Curtis'
p5370
aS'John Cusack'
p5371
aS'Claire Danes'
p5372
aS'Geena Davis'
p5373
aS'Robert Lawrence'
p5374
aS'Leonardo DiCaprio'
p5375
aS'Cameron Diaz'
p5376
aS'Art Carney'
p5377
aS'Jonathan Rhys Meyers'
p5378
aS'Debbie Reynolds'
p5379
aS'Lee Remick'
p5380
aS'Stevie Wonder'
p5381
aS'Judge Reinhold'
p5382
aS'Rob Reiner'
p5383
aS'Irwin Winkler'
p5384
aS'Bill Marsilii'
p5385
aS'Russell Wong'
p5386
aS'Fernando Di Leo'
p5387
aS'Rod Lurie'
p5388
aS'Peter Dvorsky'
p5389
aS'Sally Field'
p5390
aS'David Fincher'
p5391
aS'Joe Eszterhas'
p5392
aS'Rupert Everett'
p5393
aS'Chris Farley'
p5394
aS'Corey Feldman'
p5395
aS'Brooke Shields'
p5396
aS'Kazuo Miyagawa'
p5397
aS'J. Mackye Gruber'
p5398
aS'Hans Bauer'
p5399
aS'Alar Kivilo'
p5400
aS'Carl Sagan'
p5401
aS'Edward James Olmos'
p5402
aS'Jean Poiret'
p5403
aS'James Wan'
p5404
aS'Kevin De La Noy'
p5405
aS'John Maybury'
p5406
aS'George Gallo'
p5407
aS'Joanna Lumley'
p5408
aS'Peter Filardi'
p5409
aS'Adolph Deutsch'
p5410
aS'Alexandre Desplat'
p5411
aS'Todd Black'
p5412
aS'Kim Novak'
p5413
aS'Frank De Vol'
p5414
aS'Richard Curtis'
p5415
aS'Bruce Geller'
p5416
aS'Victor Jory'
p5417
aS'Stephen J. Roth'
p5418
aS'Mark Waters'
p5419
aS'John Barry'
p5420
aS'Frank Langella'
p5421
aS'Jessica Lange'
p5422
aS'William Sherak'
p5423
aS'Todd Alcott'
p5424
aS'Nathan Lane'
p5425
aS'Martin Landau'
p5426
aS'Eric Bress'
p5427
aS'Michael Lerner'
p5428
aS'Bonnie Curtis'
p5429
aS'Hironobu Sakaguchi'
p5430
aS'Tessh\xc3\xb4 Genda'
p5431
aS'Gerard Butler'
p5432
aS'Donn Pearce'
p5433
aS'Chief Dan George'
p5434
aS'Reni Santoni'
p5435
aS'Don Brochu'
p5436
aS'Lars Johan Werle'
p5437
aS'Robert Holtzman'
p5438
aS'Jonathan Sanger'
p5439
aS'Steven Rogers'
p5440
aS'John Roberdeau'
p5441
aS'Mike Fleiss'
p5442
aS'Jose Rivera'
p5443
aS'Eiko Kadono'
p5444
aS'Bill Badalato'
p5445
aS'Robert Cummings'
p5446
aS'Robert Longo'
p5447
aS'Zachary David Cope'
p5448
aS'Melissa McCarthy'
p5449
aS'Kario Salem'
p5450
aS'Amy Heckerling'
p5451
aS'Laurence Harvey'
p5452
aS'Bernard Herrmann'
p5453
aS'Frederic Knudtson'
p5454
aS'Gilbert Adler'
p5455
aS'Ralph Winter'
p5456
aS'John Sharian'
p5457
aS'Gianni Nunnari'
p5458
aS'Dougray Scott'
p5459
aS'Mark Romanek'
p5460
aS'R. Lee Fleming Jr.'
p5461
aS'Akiyuki Nosaka'
p5462
aS'John Moore'
p5463
aS'Robert Iscove'
p5464
aS'Trey Wilson'
p5465
aS'Andrew Fleming'
p5466
aS'Clifford Odets'
p5467
aS'Jason Beghe'
p5468
aS'Ralph Bellamy'
p5469
aS'Barbara Bel Geddes'
p5470
aS'David Scarpa'
p5471
aS'Herman Raucher'
p5472
aS'Monica Bellucci'
p5473
aS'Julie Baines'
p5474
aS'Joel Edgerton'
p5475
aS'Anton Corbijn'
p5476
aS'Piero De Bernardi'
p5477
aS'Phil Harris'
p5478
aS'Chris Moore'
p5479
aS'Victor Salva'
p5480
aS'Kristen Buckley'
p5481
aS'Patricia Arquette'
p5482
aS'Jennifer Aniston'
p5483
aS'Nicholas Pileggi'
p5484
aS'Brad Pitt'
p5485
aS'John Cleese'
p5486
aS'G\xc3\xa9rard Pir\xc3\xa8s'
p5487
aS'Armin Mueller-Stahl'
p5488
aS'Pamela Anderson'
p5489
aS'Woody Allen'
p5490
aS'Rochelle Davis'
p5491
aS'Richard Vane'
p5492
aS'Michael Cristofer'
p5493
aS'Jim Farley'
p5494
aS'Robert Wade'
p5495
aS'Justin Pierce'
p5496
aS'Raymond Massey'
p5497
aS'Yann Samuell'
p5498
aS'Jost Vacano'
p5499
aS'Geoffrey Unsworth'
p5500
aS'Rodney Liber'
p5501
aS'Leigh Whannell'
p5502
aS'Missy Stewart'
p5503
aS'Sandy Stern'
p5504
aS'Hank Azaria'
p5505
aS'Martin Donovan'
p5506
aS'Richard Attenborough'
p5507
aS'Sean Astin'
p5508
aS'Adolfo Celi'
p5509
aS'David Arquette'
p5510
aS"Matt O'Leary"
p5511
aS'Anne Archer'
p5512
aS'John Frick'
p5513
aS'Alberto Granado'
p5514
aS'Jimmy Miller'
p5515
aS'Carla Fry'
p5516
aS'Edward Saxon'
p5517
aS'Mary Kay Bergman'
p5518
aS'Jean-Yves Escoffier'
p5519
aS'Leslie Jones'
p5520
aS'Jon Povill'
p5521
aS'Noriko Hidaka'
p5522
aS'Rick Dempsey'
p5523
aS'Dougie McConnell'
p5524
aS'Mark Ruffalo'
p5525
aS'Lynsey Taylor Mackay'
p5526
aS'Rachel Elkind'
p5527
aS'Montgomery Clift'
p5528
aS'Ethan Coen'
p5529
aS'Joel Coen'
p5530
aS'Richard Marks'
p5531
aS'Laura Harring'
p5532
aS'Toni Collette'
p5533
aS'Elaine Hendrix'
p5534
aS'Dan Mindel'
p5535
aS'Brett Harrelson'
p5536
aS'Man Keung Chan'
p5537
aS'Tom Guiry'
p5538
aS'Victor Slezak'
p5539
aS'David McNally'
p5540
aS'Sully Boyar'
p5541
aS'Peter Ostrum'
p5542
aS'Andrew Lazar'
p5543
aS'Kathryn Hahn'
p5544
aS'Luis Guzm\xc3\xa1n'
p5545
aS'Hiroyuki Sanada'
p5546
aS'Yvonne Zima'
p5547
aS'Polly Platt'
p5548
aS'Alexander Janko'
p5549
aS'Theresa Rebeck'
p5550
aS'Cary Woods'
p5551
aS'Louis Sachar'
p5552
aS'James Ellroy'
p5553
aS'Henry Blanke'
p5554
aS'H.G. Wells'
p5555
aS'Patrick Smith Kelly'
p5556
aS'Cyril J. Mockridge'
p5557
aS'Mandy Moore'
p5558
aS'Mark Mothersbaugh'
p5559
aS'Paul Laufer'
p5560
aS'Stephanie Austin'
p5561
aS'Carole Little'
p5562
aS'Joe Morton'
p5563
aS'Paris Hilton'
p5564
aS'Louis A. Stroller'
p5565
aS'Alice Englert'
p5566
aS'Camille Brown'
p5567
aS'Jesse Lasky Jr.'
p5568
aS'Newt Arnold'
p5569
aS'Gayatri Joshi'
p5570
aS'Joe Viterelli'
p5571
aS'Anonymous'
p5572
aS'Daniel Espinosa'
p5573
aS'John Williams'
p5574
aS'Christopher Young'
p5575
aS'Machiko Ky\xc3\xb4'
p5576
aS'Shawn Maurer'
p5577
aS'Richard Haydn'
p5578
aS'Ruth Hussey'
p5579
aS'George Ogilvie'
p5580
aS'Alex Winter'
p5581
aS'Jay Cocks'
p5582
aS'Jerry Belson'
p5583
aS'Pamela Reed'
p5584
aS'Dominique Sanda'
p5585
aS'Gregg Chabot'
p5586
aS'Sheldon Turner'
p5587
aS'Neil Young'
p5588
aS'Cornell Woolrich'
p5589
aS'Ed Shearmur'
p5590
aS'Winston Groom'
p5591
aS'Kevin Peterka'
p5592
aS'Anthony Bregman'
p5593
aS'Erica Leerhsen'
p5594
aS'Mychael Danna'
p5595
aS'Kang-ho Song'
p5596
aS'Edward A. Warschilka'
p5597
aS'Jason James Richter'
p5598
aS'Stephen Carpenter'
p5599
aS'Alain Goldman'
p5600
aS'Peter Farrelly'
p5601
aS'Marcello Danon'
p5602
aS'James Laurenson'
p5603
aS'James Lapine'
p5604
aS'Terence Chang'
p5605
aS'Antonio Mendoza'
p5606
aS'Sherri Stoner'
p5607
aS'Ping Bin Lee'
p5608
aS'Bertil Ohlsson'
p5609
aS'John Hackney'
p5610
aS'Cheryl Edwards'
p5611
aS'Eva Mendes'
p5612
aS'Andrey Konchalovskiy'
p5613
aS'Herbert Cardwell'
p5614
aS'Qiu Yuen'
p5615
aS'Paul Junger Witt'
p5616
aS'Gil Junger'
p5617
aS'Louis Garfinkle'
p5618
aS'Traudl Junge'
p5619
aS'Lambert Wilson'
p5620
aS'Tom Epperson'
p5621
aS'Explosions in the Sky'
p5622
aS'Betty Orr'
p5623
aS'Bill Walsh'
p5624
aS'Bret Easton Ellis'
p5625
aS'Chris Wyatt'
p5626
aS'Ronald D. Moore'
p5627
aS'Takashi Shimizu'
p5628
aS'Dylan McDermott'
p5629
aS'Jackson De Govia'
p5630
aS'Len Blum'
p5631
aS'Dave England'
p5632
aS'Sonja Smits'
p5633
aS'Sang-kyung Kim'
p5634
aS'John Amos'
p5635
aS'Rosie Perez'
p5636
aS'Barry Pepper'
p5637
aS'Amanda Peet'
p5638
aS'Chris Penn'
p5639
aS'David Paymer'
p5640
aS'Guy Pearce'
p5641
aS'Kim Aubry'
p5642
aS'Barry Alexander Brown'
p5643
aS'Randy Edelman'
p5644
aS'Eartha Kitt'
p5645
aS'Anne Dudley'
p5646
aS'John Malkovich'
p5647
aS'David Mamet'
p5648
aS'Elle Macpherson'
p5649
aS'William H. Macy'
p5650
aS'Andie MacDowell'
p5651
aS'Shirley MacLaine'
p5652
aS'Terrence Malick'
p5653
aS'Michael Madsen'
p5654
aS'Virginia Madsen'
p5655
aS'Jeremy Sumpter'
p5656
aS'Anthony Chau-Sang Wong'
p5657
aS'Kelly Candaele'
p5658
aS'Paul Webster'
p5659
aS'Marco Beltrami'
p5660
aS'James Fenimore Cooper'
p5661
aS'Horton Foote'
p5662
aS'Christopher Smith'
p5663
aS'John Taintor Foote'
p5664
aS'Michael Ende'
p5665
aS'Gloria Swanson'
p5666
aS'Wayne Wang'
p5667
aS'Robert Knepper'
p5668
aS'Elizabeth Chandler'
p5669
aS'Nunnally Johnson'
p5670
aS'David Moscow'
p5671
aS'Aimee Garcia'
p5672
aS'J.K. Rowling'
p5673
aS'Adam Garcia'
p5674
aS'Al Ernest Garcia'
p5675
aS'Addison Timlin'
p5676
aS'David Hirschfelder'
p5677
aS'Alun Bollinger'
p5678
aS'Adam Leff'
p5679
aS'Susan Arnold'
p5680
aS'Bridgette Wilson-Sampras'
p5681
aS'Marion Mack'
p5682
aS'Jack Oakie'
p5683
aS'Kurt Sutter'
p5684
aS'Walter Salles'
p5685
aS'Arsenio Hall'
p5686
aS'Kim Greist'
p5687
aS'Sidney Levin'
p5688
aS'Francis Capra'
p5689
aS'S.S. Wilson'
p5690
aS'Gerald Gaiser'
p5691
aS'Claude Zidi'
p5692
aS'Bruce Kimmel'
p5693
aS'Steve Ditko'
p5694
aS'Ronnie Taylor'
p5695
aS'Nik Cohn'
p5696
aS'Irrfan Khan'
p5697
aS'Liam Aiken'
p5698
aS'Casey Silver'
p5699
aS'Yancey Arias'
p5700
aS'Chris Buck'
p5701
aS'Albert Berger'
p5702
aS'Antoine Roch'
p5703
aS'Maurice Jarre'
p5704
aS'Steve Oedekerk'
p5705
aS'Cillian Murphy'
p5706
aS'James Stewart'
p5707
aS'Max Steiner'
p5708
aS'Elizabeth Taylor'
p5709
aS'Spencer Tracy'
p5710
aS'Franz Waxman'
p5711
aS'Fran\xc3\xa7ois Truffaut'
p5712
aS'James L. Venable'
p5713
aS'Jim Herzfeld'
p5714
aS'Kirsten Prout'
p5715
aS'Robert May'
p5716
aS'Vilmos Zsigmond'
p5717
aS'Robert D. Yeoman'
p5718
aS'Dan Laustsen'
p5719
aS'Edward L. McDonnell'
p5720
aS'Tony Chiu-Wai Leung'
p5721
aS'John Foreman'
p5722
aS'Alan Arkin'
p5723
aS'\xc3\x89douard Molinaro'
p5724
aS'Susan Sarandon'
p5725
aS'Mia Sara'
p5726
aS'Martin Scorsese'
p5727
aS'Arnold Schwarzenegger'
p5728
aS'Mimi Rogers'
p5729
aS'Julia Roberts'
p5730
aS'Winona Ryder'
p5731
aS'Meg Ryan'
p5732
aS'Adam Greenberg'
p5733
aS'Steven Seagal'
p5734
aS'Kristin Scott Thomas'
p5735
aS'Eric Bergren'
p5736
aS'Alan Mak'
p5737
aS'Joey Kern'
p5738
aS'Sam Weisman'
p5739
aS'Ellen Widmann'
p5740
aS'Gr\xc3\xa9gory Levasseur'
p5741
aS'C\xc3\xa9cile De France'
p5742
aS'Judy Freudberg'
p5743
aS'Diane Lake'
p5744
aS'John Morrissey'
p5745
aS'Peter Krikes'
p5746
aS'Mathieu Kassovitz'
p5747
aS'Benedict Wong'
p5748
aS'Greg Mooradian'
p5749
aS'Byron Kennedy'
p5750
aS'Michael Ritchie'
p5751
aS'Mary Shelley'
p5752
aS'Tim Herlihy'
p5753
aS'Greg Glienna'
p5754
aS'Bibi Lindstr\xc3\xb6m'
p5755
aS'James Leo Herlihy'
p5756
aS'Steve Valentine'
p5757
aS'Dorothy M. Johnson'
p5758
aS'Brad Greenquist'
p5759
aS'Russell Metty'
p5760
aS'Graham Chapman'
p5761
aS'Chris Lebenzon'
p5762
aS'Grace Jones'
p5763
aS'Claude Chabrol'
p5764
aS'Mark Gordon'
p5765
aS'Spike Jonze'
p5766
aS'Josh Charles'
p5767
aS'Jon Landau'
p5768
aS'Victor Fleming'
p5769
aS'Sook Yhun'
p5770
aS'Billy Burke'
p5771
aS'Don Cheadle'
p5772
aS'Steven Reuther'
p5773
aS'Kerry Condon'
p5774
aS'Jeffrey Kluger'
p5775
aS'Kenta Fukasaku'
p5776
aS'Kinji Fukasaku'
p5777
aS'Shunzo Kato'
p5778
aS'Bruce Davey'
p5779
aS'David Howard'
p5780
aS'Nat Mauldin'
p5781
aS'Michael Moore'
p5782
aS'Dino Risi'
p5783
aS'Franklin J. Schaffner'
p5784
aS'Trevor Rabin'
p5785
aS'Ben Hecht'
p5786
aS'Lewis Colick'
p5787
aS'Lowell D. Blank'
p5788
aS'Carl Ellsworth'
p5789
aS'James Gunn'
p5790
aS'Michel Rubini'
p5791
aS'Leonard Rosenman'
p5792
aS'John DiMaggio'
p5793
aS'Simon Baker'
p5794
aS'James Frain'
p5795
aS'Diane Kruger'
p5796
aS'Kristine Johnson'
p5797
aS'Rachael Leigh Cook'
p5798
aS'Ken Anderson'
p5799
aS'Ann Biderman'
p5800
aS'Leigh Brackett'
p5801
aS'Emmanuelle Seigner'
p5802
aS'Farida Jalal'
p5803
aS'Trevor Jones'
p5804
aS'Brad Bird'
p5805
aS'John Ridley'
p5806
aS'Chemeeka Walker'
p5807
aS'Mark Forstater'
p5808
aS'Takeshi Kaneshiro'
p5809
aS'Agust\xc3\xadn Almod\xc3\xb3var'
p5810
aS'Bobby Driscoll'
p5811
aS'Rob Minkoff'
p5812
aS'Jamie Ren\xc3\xa9e Smith'
p5813
aS'Frank Whaley'
p5814
aS'Stephen Gaghan'
p5815
aS'Ming-Na Wen'
p5816
aS'Monica Keena'
p5817
aS'John Updike'
p5818
aS'Hope Davis'
p5819
aS'Abigail Breslin'
p5820
aS'Stephen Sinclair'
p5821
aS'Barnet Bain'
p5822
aS'Kami Garcia'
p5823
aS'Gore Verbinski'
p5824
aS'Daniel Goldin'
p5825
aS'Jack Taylor'
p5826
aS'Mikl\xc3\xb3s L\xc3\xa1szl\xc3\xb3'
p5827
aS'Eric Schweig'
p5828
aS'V\xc3\xadctor Reyes'
p5829
aS'Lindsay Doran'
p5830
aS'Jean-Pierre Jeunet'
p5831
aS'Isao Takahata'
p5832
aS'Michael Deeley'
p5833
aS'Peter E. Berger'
p5834
aS'Bill Peet'
p5835
aS'Georgia Hale'
p5836
aS'James Schamus'
p5837
aS'Lewis John Carlino'
p5838
aS'Aunjanue Ellis'
p5839
aS'Anna Thomas'
p5840
aS'Sela Ward'
p5841
aS'Al Boasberg'
p5842
aS'Charles Lang'
p5843
aS'Paul Verhoeven'
p5844
aS'Gore Vidal'
p5845
aS'John Hawkes'
p5846
aS'Vince Vaughn'
p5847
aS'Christopher Walken'
p5848
aS'J.T. Walsh'
p5849
aS'Steve Franks'
p5850
aS'Olivier Mauffroy'
p5851
aS'Simon Perry'
p5852
aS'Cletus Anderson'
p5853
aS'Maria Pitillo'
p5854
aS'Slim Pickens'
p5855
aS'Sidney Poitier'
p5856
aS'Gregg Hale'
p5857
aS'Oliver Platt'
p5858
aS'Kevin Pollak'
p5859
aS'Sydney Pollack'
p5860
aS'Julian Fellowes'
p5861
aS'George Fenton'
p5862
aS'Robert Folk'
p5863
aS'Jerry Fielding'
p5864
aS'Brad Fiedel'
p5865
aS'Frances McDormand'
p5866
aS'Malcolm McDowell'
p5867
aS'Kelly McGillis'
p5868
aS'Steve McQueen'
p5869
aS'Colm Meaney'
p5870
aS'Dina Meyer'
p5871
aS'Mark Hanlon'
p5872
aS'David N. Titcher'
p5873
aS'Jeremy McWilliams'
p5874
aS'Philip LaZebnik'
p5875
aS'Lloyd Phillips'
p5876
aS'David Puttnam'
p5877
aS'Quentin Tarantino'
p5878
aS'John Lynch'
p5879
aS'Sidney Lumet'
p5880
aS'Jon Lovitz'
p5881
aS'Bj\xc3\xb6rk'
p5882
aS'Courtney Love'
p5883
aS'Moritz Bleibtreu'
p5884
aS'Anne Parillaud'
p5885
aS'BT'
p5886
aS'Bruce A. Block'
p5887
aS'Bud S. Smith'
p5888
aS'Kevin Brodbin'
p5889
aS'Nigel Cole'
p5890
aS'Damian Chapa'
p5891
aS'George Martin'
p5892
aS'Vladimir Kulich'
p5893
aS'John Erick Dowdle'
p5894
aS'Al Reinert'
p5895
aS'Larenz Tate'
p5896
aS'Hilary Swank'
p5897
aS'Marion Cotillard'
p5898
aS'Saar Klein'
p5899
aS'Jaime Pressly'
p5900
aS'David Matalon'
p5901
aS'Gale Anne Hurd'
p5902
aS'Buzz Bissinger'
p5903
aS'Megan Ellison'
p5904
aS'Robert Watts'
p5905
aS'Mark Knopfler'
p5906
aS'John Hillcoat'
p5907
aS'Peter Asmussen'
p5908
aS'Thibault Verhaeghe'
p5909
aS'Nikki Reed'
p5910
aS'Jules Verne'
p5911
aS'Alexandre Arcady'
p5912
aS'Palak Patel'
p5913
aS'Ashok Amritraj'
p5914
aS'Rob Marshall'
p5915
aS'Peter Stone'
p5916
aS'Tom Everett Scott'
p5917
aS'Bob Newhart'
p5918
aS'Robert Wuhl'
p5919
aS'Wendy Carlos'
p5920
aS'Jon Davison'
p5921
aS'James Gleason'
p5922
aS'Samuel A. Taylor'
p5923
aS'Samuel W. Taylor'
p5924
aS'Scott Marshall Smith'
p5925
aS'Scott B. Smith'
p5926
aS'Jean-Pierre Sauvaire'
p5927
aS'Randy Pearlstein'
p5928
aS'Garth Ennis'
p5929
aS'James D. Brubaker'
p5930
aS'Troy Kennedy-Martin'
p5931
aS'Mihai Malaimare Jr.'
p5932
aS'James MacDonald'
p5933
aS'Biff McGuire'
p5934
aS'Jim Wheat'
p5935
aS'Anne Spielberg'
p5936
aS'Norman Wexler'
p5937
aS'Stephen Goldblatt'
p5938
aS'Donatas Banionis'
p5939
aS'Jacques Haitkin'
p5940
aS'Toby Stephens'
p5941
aS'Paul Newman'
p5942
aS'Ash Brannon'
p5943
aS'Marilyn Monroe'
p5944
aS'Carl Lerner'
p5945
aS'Marcello Mastroianni'
p5946
aS'James Mason'
p5947
aS'Mark Canton'
p5948
aS"Brian O'Halloran"
p5949
aS'Sophie Okonedo'
p5950
aS'Laurence Olivier'
p5951
aS'Frank Vincent'
p5952
aS'Kim Secrist'
p5953
aS'Laura Ziskin'
p5954
aS'Russell Mulcahy'
p5955
aS'Jeannine Taylor'
p5956
aS'Patrick Fugit'
p5957
aS'Donald E. Thorin'
p5958
aS'Hye-jeong Kang'
p5959
aS'Henry Bergman'
p5960
aS'Chi Keung Fung'
p5961
aS'Josh Lucas'
p5962
aS'Ehud Yonay'
p5963
aS'Jim Breuer'
p5964
aS'Mary Jane Skalski'
p5965
aS'Craig T. Nelson'
p5966
aS'Brittany Murphy'
p5967
aS'Barbara McLean'
p5968
aS'Craig Mazin'
p5969
aS'Colin Farrell'
p5970
aS'Orlando Jones'
p5971
aS'J. David Stem'
p5972
aS'Alden Ehrenreich'
p5973
aS'Will Yun Lee'
p5974
aS'Enzo Ungari'
p5975
aS'John Hodge'
p5976
aS'Peter Greene'
p5977
aS'Shane Black'
p5978
aS'Liv Tyler'
p5979
aS'Ken Watanabe'
p5980
aS'Kathryn Bigelow'
p5981
aS'Sharon Stone'
p5982
aS'Oliver Stone'
p5983
aS'Sylvester Stallone'
p5984
aS'J.B. Rogers'
p5985
aS'Kenneth Hyman'
p5986
aS'Charlize Theron'
p5987
aS'Vicky Jenson'
p5988
aS'Rick Moranis'
p5989
aS'Thomas Jane'
p5990
aS'Aditya Chopra'
p5991
aS'Jay Mohr'
p5992
aS'Jason Isaacs'
p5993
aS'David Carradine'
p5994
aS'John Carradine'
p5995
aS'Agnes Moorehead'
p5996
aS'Claudia Cardinale'
p5997
aS'Shawn Levy'
p5998
aS'W.P. Kinsella'
p5999
aS'Tedi Sarafian'
p6000
aS'Joseph L. Galloway'
p6001
aS'Thomas Richards'
p6002
aS'Ronny Graham'
p6003
aS'Leslie Dixon'
p6004
aS'M\xc3\xada Maestro'
p6005
aS'Laurence Dworet'
p6006
aS'Julie Ansell'
p6007
aS'Ernest Tidyman'
p6008
aS'Guinevere Turner'
p6009
aS'Sol Saks'
p6010
aS'Hitoshi Takagi'
p6011
aS'Adrian Martinez'
p6012
aS'James Kniest'
p6013
aS'Vald\xc3\xads \xc3\x93skarsd\xc3\xb3ttir'
p6014
aS'John Rice'
p6015
aS'Julie Walters'
p6016
aS'Fran Walsh'
p6017
aS'Michael Kitchen'
p6018
aS'Jonathan D. Krane'
p6019
aS'Jon Stewart'
p6020
aS'Gordon Gray'
p6021
aS'Lalit Pandit'
p6022
aS'Aaron Sorkin'
p6023
aS'Phil Hay'
p6024
aS'Michael Brandt'
p6025
aS'Anthony Harvey'
p6026
aS'Brandon Rosser'
p6027
aS'Elsa Lanchester'
p6028
aS'Nacho Ruiz Capillas'
p6029
aS'Jos\xc3\xa9 Luis Cuerda'
p6030
aS'Bob Geldof'
p6031
aS'Michael Gambon'
p6032
aS'Zach Galligan'
p6033
aS'Peter Stormare'
p6034
aS'Robert Shaye'
p6035
aS'Frederick Knott'
p6036
aS'Howard Gottfried'
p6037
aS'Michael Taliferro'
p6038
aS'Kent L. Wakeford'
p6039
aS'David Mickey Evans'
p6040
aS'Eugene Collier'
p6041
aS'Kim Coates'
p6042
aS'Harley Jane Kozak'
p6043
aS'Mark Warner'
p6044
aS'Jeff Most'
p6045
aS"John O'Farrell"
p6046
aS'Wesley Strick'
p6047
aS'Todd Phillips'
p6048
aS'Tommy Swerdlow'
p6049
aS'Norman Saunders'
p6050
aS'Rick Rosenthal'
p6051
aS'Howard Atherton'
p6052
aS'Frank Marshall'
p6053
aS'David Klass'
p6054
aS'Mike Lobell'
p6055
aS'Marshall Brickman'
p6056
aS'Topher Grace'
p6057
aS'Mary Gaitskill'
p6058
aS'Robert Benmussa'
p6059
aS'Michael Anthony Snowden'
p6060
aS'Herbert Gr\xc3\xb6nemeyer'
p6061
aS'Clancy Sigal'
p6062
aS'Beulah Bains'
p6063
aS'Jonathan Lipnicki'
p6064
aS'Fred Murphy'
p6065
aS'David Amram'
p6066
aS'Wally Pfister'
p6067
aS'Marsha Oglesby'
p6068
aS'Alex Heffes'
p6069
aS'Roddy Piper'
p6070
aS'Maryse Alberti'
p6071
aS'Rider Strong'
p6072
aS'Gaston Leroux'
p6073
aS'Anne Fine'
p6074
aS'Kevin Barnett'
p6075
aS'Kurt Luedtke'
p6076
aS'Hugh Wilson'
p6077
aS'Arthur Schnitzler'
p6078
aS'Yvonne Furneaux'
p6079
aS'Tom Luse'
p6080
aS'Steve Carell'
p6081
aS'Philippe Nahon'
p6082
aS'Barbara De Fina'
p6083
aS'Eva Green'
p6084
aS'Danny Boyle'
p6085
aS'Carole Bouquet'
p6086
aS'Daniel Petrie Jr.'
p6087
aS'Michael Bender'
p6088
aS'David Z. Weinstein'
p6089
aS'Dean Jones'
p6090
aS'Yasiin Bey'
p6091
aS'Gunnar Bj\xc3\xb6rnstrand'
p6092
aS'John Brownjohn'
p6093
aS'Harry Escott'
p6094
aS'Chan-wook Park'
p6095
aS'Peter Smokler'
p6096
aS'Jos\xc3\xa9phine Lebas-Joly'
p6097
aS'Thomas Lennon'
p6098
aS'Leland Orser'
p6099
aS'Gregory Goodman'
p6100
aS'Joey Travolta'
p6101
aS'Jeff Jensen'
p6102
aS'Eric Lloyd'
p6103
aS'Olivia Newton-John'
p6104
aS'Brigitte Nielsen'
p6105
aS'Sam Neill'
p6106
aS'Judd Nelson'
p6107
aS'Eddie Murphy'
p6108
aS'Liam Neeson'
p6109
aS'Dermot Mulroney'
p6110
aS'Leslie Nielsen'
p6111
aS'Leonard Nimoy'
p6112
aS'Isaiah Washington'
p6113
aS'Jascha Washington'
p6114
aS'George Hurdalek'
p6115
aS'Brad Wyman'
p6116
aS'Ewen Bremner'
p6117
aS'Klaus Maria Brandauer'
p6118
aS'Michael Rotenberg'
p6119
aS'Roscoe Lee Browne'
p6120
aS'Temuera Morrison'
p6121
aS'Art Linson'
p6122
aS'Jake Parker'
p6123
aS'Nick Frost'
p6124
aS'David Reynolds'
p6125
aS'Frances Goodrich'
p6126
aS'John Wagner'
p6127
aS'Lowell Cannon'
p6128
aS'Edna Purviance'
p6129
aS'Jeffrey Ford'
p6130
aS'David Spade'
p6131
aS'Scott Speedman'
p6132
aS'Jason Statham'
p6133
aS'Rudolph Grey'
p6134
aS'Gavin Polone'
p6135
aS'Stan Lee'
p6136
aS'Kirk Wise'
p6137
aS'Jessie Royce Landis'
p6138
aS'Edward Colman'
p6139
aS'Scarlett Johansson'
p6140
aS'Miguel Ferrer'
p6141
aS'Mia Farrow'
p6142
aS'Gary Farmer'
p6143
aS'William Faulkner'
p6144
aS'Eugene Levy'
p6145
aS'Naomi Watts'
p6146
aS'Howard Klausner'
p6147
aS'Caroline Goodall'
p6148
aS'Barry Cook'
p6149
aS'Tricia Cooke'
p6150
aS'Norma Heyman'
p6151
aS'Paul Oakenfold'
p6152
aS'Giorgio Cantarini'
p6153
aS'Alfred Abel'
p6154
aS'Edward M. Abroms'
p6155
aS'Lloyd Segan'
p6156
aS'Brendan Sexton III'
p6157
aS'Donna Powers'
p6158
aS'Gerry Becker'
p6159
aS'Alyson Hannigan'
p6160
aS'K.K. Barrett'
p6161
aS'Carl Binder'
p6162
aS'Bill Block'
p6163
aS'Jeff Baena'
p6164
aS'Mia Wasikowska'
p6165
aS'Andrew Fierberg'
p6166
aS'G\xc3\xa9rard Brach'
p6167
aS'Sidney Ganis'
p6168
aS'Mary Harron'
p6169
aS'Dylan Baker'
p6170
aS'Nick Urata'
p6171
aS'Michael Pye'
p6172
aS'Noel Langley'
p6173
aS'Laura Hillenbrand'
p6174
aS'Cormac McCarthy'
p6175
aS'Mark W. Koch'
p6176
aS'Fredric Lebow'
p6177
aS'Bryan Cranston'
p6178
aS'Radha Mitchell'
p6179
aS'Ted Sears'
p6180
aS'Sean Chapman'
p6181
aS'David S. Goyer'
p6182
aS'Fran\xc3\xa7ois Protat'
p6183
aS'Paul Terry'
p6184
aS'Jesse James'
p6185
aS'Leonor Watling'
p6186
aS'Michael Simpson'
p6187
aS'Eric Goldberg'
p6188
aS'Grace Kelly'
p6189
aS'James Horner'
p6190
aS'William Holden'
p6191
aS'Gene Kelly'
p6192
aS'Buster Keaton'
p6193
aS'Katharine Hepburn'
p6194
aS'Audrey Hepburn'
p6195
aS'Alfred Hitchcock'
p6196
aS'Charlton Heston'
p6197
aS'Mario Puzo'
p6198
aS'Jessica Tandy'
p6199
aS'Andrei Tarkovsky'
p6200
aS'Alan Moore'
p6201
aS'John W. Wheeler'
p6202
aS'Ivan Raimi'
p6203
aS'Robert McLachlan'
p6204
aS'Abby Kohn'
p6205
aS'Evan Astrowsky'
p6206
aS'Chad Michael Murray'
p6207
aS'Miroslav Ondr\xc3\xadcek'
p6208
aS'Buzz Feitshans'
p6209
aS'Lauren Moews'
p6210
aS'Dario Argento'
p6211
aS'Asia Argento'
p6212
aS'George Armitage'
p6213
aS'Lillo Brancato'
p6214
aS'Halsted Welles'
p6215
aS'Lorraine Bracco'
p6216
aS'Daniel Lupi'
p6217
aS'Xavier Grobet'
p6218
aS'Daniel G. Sullivan'
p6219
aS'Joseph Carter'
p6220
aS'Barry Bostwick'
p6221
aS'Kathy Najimy'
p6222
aS'Mike Newell'
p6223
aS'Mike Nichols'
p6224
aS'Connie Nielsen'
p6225
aS'Alan Ball'
p6226
aS'David Brown'
p6227
aS'Lennart Wall\xc3\xa9n'
p6228
aS'Brannon Braga'
p6229
aS'Betty Thomas'
p6230
aS'Nozomu Sasaki'
p6231
aS'Travis Beacham'
p6232
aS'Anthony Pratt'
p6233
aS'Matt Berenson'
p6234
aS'Oded Fehr'
p6235
aS'James B. Harris'
p6236
aS'Anne Kopelson'
p6237
aS'Arnold Kopelson'
p6238
aS'Philip Barry'
p6239
a.