(lp0
S'Dwayne Johnson'
p1
aS'Rose Byrne'
p2
aS'Chris Hemsworth'
p3
aS'Anthony Hopkins'
p4
aS'Brad Pitt'
p5
aS'Beyonc\xc3\xa9 Knowles'
p6
aS'Jennifer Jason Leigh'
p7
aS'Emma Watson'
p8
aS'Denzel Washington'
p9
aS'Vin Diesel'
p10
aS'Johnny Depp'
p11
aS'Carla Gugino'
p12
aS'Jackie Chan'
p13
aS'Robert Downey Jr.'
p14
aS'Liam Neeson'
p15
aS'Tom Cruise'
p16
aS'Hugh Jackman'
p17
aS'Christian Bale'
p18
aS'Scarlett Johansson'
p19
aS'Harrison Ford'
p20
aS'Charlize Theron'
p21
aS'Mark Hamill'
p22
aS'Jason Statham'
p23
aS'Kate Beckinsale'
p24
aS'Mark Wahlberg'
p25
aS'Will Smith'
p26
aS'Nicolas Cage'
p27
aS'Christopher Nolan'
p28
aS'Angelina Jolie'
p29
aS'Tom Hanks'
p30
aS'Jennifer Aniston'
p31
aS'Leonardo DiCaprio'
p32
aS'Cate Blanchett'
p33
aS'Jeremy Renner'
p34
aS'Chris Evans'
p35
aS'Matthew McConaughey'
p36
aS'Samuel L. Jackson'
p37
aS'Gerard Butler'
p38
aS'Keanu Reeves'
p39
aS'Michael Fassbender'
p40
aS'Danielle Panabaker'
p41
aS'Kristen Stewart'
p42
aS'Bruce Willis'
p43
aS'Sandra Bullock'
p44
aS'Gina Gershon'
p45
aS'Jake Gyllenhaal'
p46
aS'Curd J\xc3\xbcrgens'
p47
aS'Elizabeth Banks'
p48
aS'Tom Hardy'
p49
aS'Monica Bellucci'
p50
aS'Cole Sprouse'
p51
aS'Margot Robbie'
p52
aS'Daniel Radcliffe'
p53
aS'Rebecca Ferguson'
p54
aS'Marion Cotillard'
p55
aS'Uma Thurman'
p56
aS'Kevin Spacey'
p57
aS'Mark Ruffalo'
p58
aS'Gary Oldman'
p59
aS'Quentin Tarantino'
p60
aS'Anne Hathaway'
p61
aS'Arnold Schwarzenegger'
p62
aS'Keira Knightley'
p63
aS'Emily Blunt'
p64
aS'Carrie Fisher'
p65
aS'Steven Seagal'
p66
aS'Jim Carrey'
p67
aS'Amy Adams'
p68
aS'Woody Harrelson'
p69
aS'Jack Black'
p70
aS'Kate Winslet'
p71
aS'Ben Kingsley'
p72
aS'Fran\xc3\xa7ois Berl\xc3\xa9and'
p73
aS'Dominique Pinon'
p74
aS'Qi Shu'
p75
aS'Natalie Portman'
p76
aS'Morgan Freeman'
p77
aS'Alexandra Maria Lara'
p78
aS'Rebecca Hall'
p79
aS'Helena Bonham Carter'
p80
aS'Ryan Reynolds'
p81
aS'Laura Dern'
p82
aS'Edward Norton'
p83
aS'Ben Affleck'
p84
aS'Michael Keaton'
p85
aS'Vincent Cassel'
p86
aS'Nicole Kidman'
p87
aS'John Travolta'
p88
aS'Milla Jovovich'
p89
aS'Stanley Tucci'
p90
aS'Jaime Pressly'
p91
aS'Linda Fiorentino'
p92
aS'Robert De Niro'
p93
aS'Michelle Rodriguez'
p94
aS'Robin Wright'
p95
aS'Michael Caine'
p96
aS'Daniel Craig'
p97
aS'Elijah Wood'
p98
aS'Alan Rickman'
p99
aS'Jessica Alba'
p100
aS'Ewan McGregor'
p101
aS'John Goodman'
p102
aS'Sean Connery'
p103
aS'George Clooney'
p104
aS'Norman Reedus'
p105
aS'Martin Freeman'
p106
aS'Vera Farmiga'
p107
aS'Tetsur\xc3\xb4 Tanba'
p108
aS'Paul Walker'
p109
aS'James Franco'
p110
aS'Heath Ledger'
p111
aS'Robin Williams'
p112
aS'Russell Crowe'
p113
aS'Eddie Murphy'
p114
aS'Cillian Murphy'
p115
aS'Andy Serkis'
p116
aS'Matt LeBlanc'
p117
aS'Shia LaBeouf'
p118
aS'Willem Dafoe'
p119
aS"Vincent D'Onofrio"
p120
aS'Laurence Fishburne'
p121
aS'Jared Leto'
p122
aS'Winona Ryder'
p123
aS'Diego Luna'
p124
aS'Natasha Henstridge'
p125
aS'Kirsten Dunst'
p126
aS'Colin Farrell'
p127
aS'Kristin Scott Thomas'
p128
aS'Sean Bean'
p129
aS'Seann William Scott'
p130
aS'Rosamund Pike'
p131
aS'Eva Green'
p132
aS'J\xc3\xa9r\xc3\xa9mie Renier'
p133
aS'Sylvester Stallone'
p134
aS'George Lucas'
p135
aS'Colin Firth'
p136
aS'Denise Richards'
p137
aS'Lisa Kudrow'
p138
aS'Paul Rudd'
p139
aS'Rupert Grint'
p140
aS'Zachary Levi'
p141
aS'Jennifer Garner'
p142
aS'Clint Eastwood'
p143
aS'Jean-Claude Van Damme'
p144
aS'Amy Smart'
p145
aS'William H. Macy'
p146
aS'Elisabeth Shue'
p147
aS'Zooey Deschanel'
p148
aS'Jodie Foster'
p149
aS'Ed Harris'
p150
aS'Jean Reno'
p151
aS'Amanda Peet'
p152
aS'Matt Damon'
p153
aS'Mel Gibson'
p154
aS'Bill Paxton'
p155
aS'Stellan Skarsg\xc3\xa5rd'
p156
aS'Jude Law'
p157
aS'Jet Li'
p158
aS'Steve Carell'
p159
aS'Kristen Bell'
p160
aS'Akio \xc3\x94tsuka'
p161
aS'Alyson Hannigan'
p162
aS'Stephen Chow'
p163
aS'Audrey Tautou'
p164
aS'Steve Buscemi'
p165
aS'Joaquin Phoenix'
p166
aS'Ben Stiller'
p167
aS'Rachel McAdams'
p168
aS'Mathieu Kassovitz'
p169
aS'Josh Brolin'
p170
aS'Jonathan Rhys Meyers'
p171
aS'Al Pacino'
p172
aS'Jordana Brewster'
p173
aS'Hailee Steinfeld'
p174
aS'Halle Berry'
p175
aS'Robert Redford'
p176
aS'Meryl Streep'
p177
aS'Pierce Brosnan'
p178
aS'Lucy Liu'
p179
aS'Brian Cox'
p180
aS'Steven Spielberg'
p181
aS'Guy Pearce'
p182
aS'Courteney Cox'
p183
aS'Connie Nielsen'
p184
aS'James Gandolfini'
p185
aS'Ian McKellen'
p186
aS'Ralph Fiennes'
p187
aS'Bill Pullman'
p188
aS'Amanda Seyfried'
p189
aS'Stephen King'
p190
aS'Forest Whitaker'
p191
aS'Bryan Cranston'
p192
aS'Hugo Weaving'
p193
aS'Yuriko Ishida'
p194
aS'Felicity Jones'
p195
aS'Sam Worthington'
p196
aS'Jeff Bridges'
p197
aS'Steve Zahn'
p198
aS'Gael Garc\xc3\xada Bernal'
p199
aS'Sean Young'
p200
aS'Sigourney Weaver'
p201
aS'Ryan Gosling'
p202
aS'Geoffrey Rush'
p203
aS'Robert Pattinson'
p204
aS'Evan Rachel Wood'
p205
aS'Josh Hutcherson'
p206
aS'Takeshi Kitano'
p207
aS'Eva Mendes'
p208
aS'Maggie Smith'
p209
aS'Salma Hayek'
p210
aS'Reese Witherspoon'
p211
aS'Billy Zane'
p212
aS'Rene Russo'
p213
aS'Alec Baldwin'
p214
aS'Olivia Wilde'
p215
aS'Orlando Bloom'
p216
aS'Stan Lee'
p217
aS'Marlon Brando'
p218
aS'Luis Guzm\xc3\xa1n'
p219
aS'Isabel Lucas'
p220
aS'Julia Roberts'
p221
aS'Jennifer Connelly'
p222
aS'Peter Stormare'
p223
aS'Jack Nicholson'
p224
aS'Ren\xc3\xa9e Zellweger'
p225
aS'Matthew Perry'
p226
aS'Cameron Diaz'
p227
aS'Julianne Moore'
p228
aS'Benicio Del Toro'
p229
aS'Armie Hammer'
p230
aS'Ridley Scott'
p231
aS'Hugh Grant'
p232
aS'Bradley Whitford'
p233
aS'Emile Hirsch'
p234
aS'Michael Crichton'
p235
aS'Jennifer Lopez'
p236
aS'Rachel Weisz'
p237
aS'Joss Whedon'
p238
aS'Mary-Louise Parker'
p239
aS'Rutger Hauer'
p240
aS'Famke Janssen'
p241
aS"Catherine O'Hara"
p242
aS'Tommy Lee Jones'
p243
aS'Mandy Moore'
p244
aS'Ming-Na Wen'
p245
aS'Sarah Jessica Parker'
p246
aS'Gwyneth Paltrow'
p247
aS'Spike Jonze'
p248
aS'Frank Darabont'
p249
aS'Christopher Lee'
p250
aS'Ron Perlman'
p251
aS'Daniel Day-Lewis'
p252
aS'Antonio Banderas'
p253
aS'Dustin Hoffman'
p254
aS'Paula Patton'
p255
aS'Amy Poehler'
p256
aS'Jessica Biel'
p257
aS'Jon Favreau'
p258
aS'Hiroyuki Sanada'
p259
aS'Lee Van Cleef'
p260
aS'Wesley Snipes'
p261
aS'Chyler Leigh'
p262
aS'Benjamin Bratt'
p263
aS'Christopher Lloyd'
p264
aS'Miyu Irino'
p265
aS'Jada Pinkett Smith'
p266
aS'Gary Sinise'
p267
aS'Christina Ricci'
p268
aS'Aaron Taylor-Johnson'
p269
aS'Michelle Pfeiffer'
p270
aS'Josh Hartnett'
p271
aS'Alex Garland'
p272
aS'Christopher Reeve'
p273
aS'Donald Sutherland'
p274
aS'Dakota Fanning'
p275
aS'Maria Bello'
p276
aS'Hector Elizondo'
p277
aS'John Turturro'
p278
aS'Bridget Fonda'
p279
aS'Christoph Waltz'
p280
aS'Thandie Newton'
p281
aS'Billy Crudup'
p282
aS'Catherine Zeta-Jones'
p283
aS'Liv Tyler'
p284
aS'Pen\xc3\xa9lope Cruz'
p285
aS'Maura Tierney'
p286
aS'Peter Dinklage'
p287
aS'Selma Blair'
p288
aS'Susan Sarandon'
p289
aS'Chris Pine'
p290
aS'Owen Wilson'
p291
aS'Macaulay Culkin'
p292
aS'Kevin Bacon'
p293
aS'Jordi Moll\xc3\xa0'
p294
aS'Patrick Stewart'
p295
aS'Robert Duvall'
p296
aS'Vince Vaughn'
p297
aS'Irrfan Khan'
p298
aS'Guillermo del Toro'
p299
aS'Sophie Marceau'
p300
aS'Javier Bardem'
p301
aS'Lucas Black'
p302
aS'Adrien Brody'
p303
aS'Peter Aalb\xc3\xa6k Jensen'
p304
aS'Jamie Foxx'
p305
aS'Kurt Russell'
p306
aS'Lily Collins'
p307
aS'Anna Kendrick'
p308
aS'Sienna Miller'
p309
aS'Mia Wasikowska'
p310
aS'Hayao Miyazaki'
p311
aS'Carrie-Anne Moss'
p312
aS'Moritz Bleibtreu'
p313
aS'Joaquim de Almeida'
p314
aS'Paul Newman'
p315
aS'Mickey Rourke'
p316
aS'Amber Valletta'
p317
aS'Tim Robbins'
p318
aS'Michael Biehn'
p319
aS'Michael Douglas'
p320
aS'David Lynch'
p321
aS'Sharon Stone'
p322
aS'Val Kilmer'
p323
aS'Demi Moore'
p324
aS'Gabriel Byrne'
p325
aS'Judi Dench'
p326
aS'John Lithgow'
p327
aS'Vanessa Hudgens'
p328
aS'Regina King'
p329
aS'Claire Foy'
p330
aS'Peter Weller'
p331
aS'Leslie Mann'
p332
aS'Nicholas Hoult'
p333
aS'Kenneth Branagh'
p334
aS'Viggo Mortensen'
p335
aS'Abigail Breslin'
p336
aS'John Cusack'
p337
aS'Michael Pe\xc3\xb1a'
p338
aS'Rosario Dawson'
p339
aS'Bryce Dallas Howard'
p340
aS'Claire Danes'
p341
aS'Daniel Br\xc3\xbchl'
p342
aS'Hope Davis'
p343
aS'Christopher McQuarrie'
p344
aS'Billy Bob Thornton'
p345
aS'Aaron Eckhart'
p346
aS'Kevin Costner'
p347
aS'Don Cheadle'
p348
aS'Danny DeVito'
p349
aS'Jon Voight'
p350
aS'Diane Kruger'
p351
aS'Ice Cube'
p352
aS'Brendan Fraser'
p353
aS'David Fincher'
p354
aS'Mark Boone Junior'
p355
aS'Robert Patrick'
p356
aS'Clark Gregg'
p357
aS'Kevin McKidd'
p358
aS'Charles Bronson'
p359
aS'Elizabeth Olsen'
p360
aS'Matthew Vaughn'
p361
aS'Naomi Watts'
p362
aS'Thomas Kretschmann'
p363
aS'Tim Curry'
p364
aS'Clive Owen'
p365
aS'Jack Kirby'
p366
aS'James Earl Jones'
p367
aS'Dominic Purcell'
p368
aS'Malcolm McDowell'
p369
aS'Simon Pegg'
p370
aS'Ethan Hawke'
p371
aS'Mark Strong'
p372
aS'Kelsey Grammer'
p373
aS'Kiefer Sutherland'
p374
aS'Sally Field'
p375
aS'Ray Stevenson'
p376
aS'Eijir\xc3\xb4 T\xc3\xb4no'
p377
aS'Max von Sydow'
p378
aS'Eliza Dushku'
p379
aS'Rupert Everett'
p380
aS'Zack Snyder'
p381
aS'Brie Larson'
p382
aS'Karl Urban'
p383
aS'Maggie Grace'
p384
aS'Heather Graham'
p385
aS'George Miller'
p386
aS'Katie Holmes'
p387
aS'Dennis Quaid'
p388
aS'Jun Kunimura'
p389
aS'Tyrese Gibson'
p390
aS'Bobby Cannavale'
p391
aS'Michael Bay'
p392
aS'Emma Thompson'
p393
aS'David Spade'
p394
aS'Carey Mulligan'
p395
aS'Bill Murray'
p396
aS'Billy Crystal'
p397
aS'Jim Broadbent'
p398
aS'Rhys Ifans'
p399
aS'Queen Latifah'
p400
aS'Diane Lane'
p401
aS'Simon Baker'
p402
aS'Alfred Molina'
p403
aS'Philip Seymour Hoffman'
p404
aS'Anton Yelchin'
p405
aS'Seth Green'
p406
aS'Ray Liotta'
p407
aS'Emmanuelle Chriqui'
p408
aS'Paz Vega'
p409
aS'Logan Lerman'
p410
aS'Christopher Walken'
p411
aS'Frank Miller'
p412
aS'Dominic West'
p413
aS'Catherine Keener'
p414
aS'James Remar'
p415
aS'Burt Reynolds'
p416
aS'Chlo\xc3\xab Sevigny'
p417
aS'Joel Edgerton'
p418
aS'Bryan Singer'
p419
aS'Jason Segel'
p420
aS'Joe Johnston'
p421
aS'Martin Scorsese'
p422
aS'Jennifer Beals'
p423
aS'Marisa Tomei'
p424
aS'Anthony Chau-Sang Wong'
p425
aS'Tim Roth'
p426
aS'Charles Dance'
p427
aS'Brigitte Nielsen'
p428
aS'Martin Lawrence'
p429
aS'John Leguizamo'
p430
aS'Leslie Nielsen'
p431
aS'Regina Hall'
p432
aS'A.J. Cook'
p433
aS'Adam Sandler'
p434
aS'John C. Reilly'
p435
aS'Woody Allen'
p436
aS'Rick Moranis'
p437
aS'Ali Larter'
p438
aS'Dennis Hopper'
p439
aS'Toni Collette'
p440
aS'Gretchen Mol'
p441
aS'Laurence Olivier'
p442
aS'Haley Joel Osment'
p443
aS'Jamie Lee Curtis'
p444
aS'F. Murray Abraham'
p445
aS'John Carpenter'
p446
aS'Lindsay Lohan'
p447
aS'Ehren Kruger'
p448
aS'G\xc3\xa9rard Depardieu'
p449
aS'Viola Davis'
p450
aS'Hilary Swank'
p451
aS'Henry Fonda'
p452
aS'Christian Slater'
p453
aS'Luc Besson'
p454
aS'Djimon Hounsou'
p455
aS'Christina Applegate'
p456
aS'Michael Sheen'
p457
aS'Paul Bettany'
p458
aS'Teri Polo'
p459
aS'Dolph Lundgren'
p460
aS'Tessh\xc3\xb4 Genda'
p461
aS'Akiva Goldsman'
p462
aS'Brooke Shields'
p463
aS'Richard Gere'
p464
aS'Claire Forlani'
p465
aS'Anne Heche'
p466
aS'John Rhys-Davies'
p467
aS'Mel Blanc'
p468
aS'Sienna Guillory'
p469
aS'Oliver Platt'
p470
aS'Joan Allen'
p471
aS'Roger Moore'
p472
aS'William Hurt'
p473
aS'Lambert Wilson'
p474
aS'Natascha McElhone'
p475
aS'Patrick Swayze'
p476
aS'Jeremy Irons'
p477
aS'Faye Dunaway'
p478
aS'Jeroen Krabb\xc3\xa9'
p479
aS'Patrick Wilson'
p480
aS'Asia Argento'
p481
aS'Bruce Greenwood'
p482
aS'Christopher Plummer'
p483
aS'Tim Allen'
p484
aS'Tom Wilkinson'
p485
aS'Julie Kavner'
p486
aS'Meg Ryan'
p487
aS'Liev Schreiber'
p488
aS'Sarah Michelle Gellar'
p489
aS'Tobey Maguire'
p490
aS'Julie Bowen'
p491
aS'Martin Sheen'
p492
aS'Eric Bana'
p493
aS'Eric Tsang'
p494
aS'Danny Glover'
p495
aS'Ron Howard'
p496
aS'Chad Michael Murray'
p497
aS'Joseph Fiennes'
p498
aS'Patrick Dempsey'
p499
aS'David Cross'
p500
aS'Angela Bassett'
p501
aS'Ian Holm'
p502
aS'Thomas Haden Church'
p503
aS'Garry Marshall'
p504
aS'Alexander Payne'
p505
aS'Cam Gigandet'
p506
aS'Michael Gambon'
p507
aS'Bruce Campbell'
p508
aS'J.J. Abrams'
p509
aS'Wes Anderson'
p510
aS'Nick Frost'
p511
aS'Billy Burke'
p512
aS'Sean Penn'
p513
aS'Malin Akerman'
p514
aS'Sam Rockwell'
p515
aS'Dina Meyer'
p516
aS'Nia Long'
p517
aS'Virginia Madsen'
p518
aS'Jennifer Love Hewitt'
p519
aS'Alan Arkin'
p520
aS'Richard Dreyfuss'
p521
aS'Laura Harring'
p522
aS'James Woods'
p523
aS'Miranda Otto'
p524
aS'Gene Hackman'
p525
aS'Tim Burton'
p526
aS'Alfred Hitchcock'
p527
aS'Michael Madsen'
p528
aS"Peter O'Toole"
p529
aS'K\xc3\xb4ichi Yamadera'
p530
aS'Steven Soderbergh'
p531
aS'Jason Flemyng'
p532
a.