(dp0
((S'null'
p1
S'neutral'
p2
g2
I2
tp3
S'more'
p4
tp5
I0
s((g2
g1
S'pos'
p6
I6
tp7
S'switch'
p8
tp9
I0
s((g6
S'neg'
p10
g10
I8
tp11
g8
tp12
I0
s((g6
g1
g2
I2
tp13
S'init'
p14
tp15
I0
s((g10
g6
g1
I2
tp16
S'joke'
p17
tp18
I0
s((g10
g6
g10
I4
tp19
g8
tp20
F0.4968333333333334
s((g1
g2
g2
I5
tp21
g14
tp22
I0
s((g10
g2
g6
I9
tp23
g8
tp24
F80.65
s((g6
g2
g6
I3
tp25
g14
tp26
F130.34351978659637
s((g1
g10
g10
I7
tp27
g14
tp28
I0
s((g2
g2
g6
I1
tp29
g17
tp30
I0
s((g1
g1
g6
I1
tp31
g8
tp32
F-6.341828328166667
s((g1
g6
g6
I5
tp33
g4
tp34
I0
s((g1
g6
g6
I11
tp35
S'end'
p36
tp37
I0
s((g1
g6
g2
I4
tp38
g4
tp39
I0
s((g10
g1
g10
I5
tp40
g36
tp41
I0
s((g2
g2
g10
I2
tp42
g14
tp43
F5540.362178935173
s((g1
g2
g6
I4
tp44
g36
tp45
I0
s((g10
g6
g1
I11
tp46
g17
tp47
I0
s((g6
g6
g10
I9
tp48
g36
tp49
I0
s((g2
g1
g10
I6
tp50
g17
tp51
I0
s((g10
g1
g10
I1
tp52
g17
tp53
I0
s((g1
g1
g6
I3
tp54
g14
tp55
I0
s((g6
g2
g1
I7
tp56
g14
tp57
I0
s((g6
g2
g6
I9
tp58
g14
tp59
F726.6129919949552
s((g6
g2
g10
I2
tp60
g17
tp61
F-0.95
s((g6
g10
g10
I3
tp62
g36
tp63
I0
s((g2
g2
g10
I8
tp64
g36
tp65
F30.346415500000006
s((g10
g2
g2
I9
tp66
g17
tp67
F-0.95
s((g1
g2
g2
I6
tp68
g17
tp69
I0
s((g6
g10
g2
I10
tp70
g17
tp71
F1400.5
s((g10
g1
g1
I9
tp72
g36
tp73
I0
s((g1
g6
g2
I3
tp74
g4
tp75
I0
s((g10
g2
g6
I7
tp76
g14
tp77
F13.733272963455
s((g10
g6
g1
I1
tp78
g17
tp79
I0
s((g2
g6
g1
I3
tp80
g8
tp81
I0
s((g10
g1
g10
I1
tp82
g8
tp83
I0
s((g6
g10
g6
I7
tp84
g4
tp85
I0
s((g10
g2
g6
I7
tp86
g36
tp87
I0
s((g1
g1
g6
I5
tp88
g14
tp89
I0
s((g1
g2
g2
I7
tp90
g17
tp91
I0
s((g6
g2
g2
I7
tp92
g17
tp93
F-0.55
s((g10
g10
g6
I2
tp94
g4
tp95
F0.06661889155
s((g10
g10
g2
I9
tp96
g4
tp97
F742.7722678333332
s((g1
g6
g2
I3
tp98
g8
tp99
I0
s((g2
g2
g10
I4
tp100
g4
tp101
F-1.9096011295421567
s((g2
g1
g10
I10
tp102
g36
tp103
I0
s((g6
g1
g2
I11
tp104
g36
tp105
I0
s((g10
g6
g2
I1
tp106
g4
tp107
I0
s((g1
g2
g1
I4
tp108
g4
tp109
I0
s((g6
g10
g6
I7
tp110
g8
tp111
I0
s((g10
g10
g2
I10
tp112
g8
tp113
F3294.258333333333
s((g1
g10
g10
I11
tp114
g8
tp115
I0
s((g2
g6
g10
I1
tp116
g4
tp117
I0
s((g6
g10
g2
I2
tp118
g17
tp119
F-0.5
s((g2
g2
g2
I2
tp120
g17
tp121
F-5.375809381207491
s((g1
g6
g6
I7
tp122
g17
tp123
I0
s((g10
g1
g6
I5
tp124
g4
tp125
I0
s((g1
g2
g10
I9
tp126
g36
tp127
I0
s((g2
g10
g10
I9
tp128
g14
tp129
F8323.877598109395
s((g6
g2
g6
I4
tp130
g8
tp131
I0
s((g2
g6
g1
I1
tp132
g4
tp133
I0
s((g6
g6
g6
I5
tp134
g36
tp135
I0
s((g2
g6
g1
I11
tp136
g4
tp137
I0
s((g6
g10
g1
I5
tp138
g8
tp139
I0
s((g1
g10
g1
I8
tp140
g8
tp141
I0
s((g6
g1
g10
I11
tp142
g14
tp143
I0
s((g1
g1
g6
I6
tp144
g36
tp145
I0
s((g2
g2
g6
I2
tp146
g36
tp147
F-1.7195
s((g10
g6
g6
I11
tp148
g4
tp149
I0
s((g10
g2
g2
I11
tp150
g4
tp151
I0
s((g6
g10
g2
I9
tp152
g8
tp153
F99.55000000000001
s((g10
g2
g10
I7
tp154
g17
tp155
I0
s((g10
g6
g1
I8
tp156
g36
tp157
I0
s((g1
g10
g2
I11
tp158
g8
tp159
I0
s((g2
g2
g2
I4
tp160
g14
tp161
F11682.542591305155
s((g6
g1
g2
I9
tp162
g17
tp163
I0
s((g6
g1
g2
I10
tp164
g17
tp165
I0
s((g6
g2
g2
I5
tp166
g4
tp167
F-0.82016860668485
s((g6
g10
g2
I8
tp168
g14
tp169
F7783.9195459082075
s((g2
g2
g2
I3
tp170
g8
tp171
F-5.632511897618384
s((g6
g6
g6
I5
tp172
g8
tp173
I0
s((g2
g1
g10
I7
tp174
g17
tp175
I0
s((g6
g2
g1
I3
tp176
g36
tp177
I0
s((g6
g10
g2
I9
tp178
g17
tp179
I0
s((g10
g2
g6
I11
tp180
g36
tp181
I0
s((g2
g2
g6
I6
tp182
g8
tp183
I0
s((g2
g10
g10
I4
tp184
g36
tp185
F0.33875
s((g6
g1
g6
I7
tp186
g4
tp187
I0
s((g2
g6
g6
I6
tp188
g4
tp189
F0.09569000000000005
s((g2
g1
g10
I10
tp190
g8
tp191
I0
s((g1
g1
g10
I6
tp192
g17
tp193
I0
s((g2
g6
g10
I6
tp194
g17
tp195
I0
s((g1
g1
g2
I6
tp196
g4
tp197
I0
s((g1
g1
g10
I1
tp198
g8
tp199
F-7.6739049762764555
s((g1
g2
g10
I1
tp200
g14
tp201
I0
s((g6
g6
g1
I5
tp202
g8
tp203
I0
s((g2
g1
g6
I6
tp204
g17
tp205
I0
s((g6
g2
g10
I3
tp206
g14
tp207
F1169.4545374532165
s((g10
g6
g2
I7
tp208
g14
tp209
F3453.2976668759693
s((g6
g10
g6
I5
tp210
g36
tp211
I0
s((g1
g10
g2
I5
tp212
g8
tp213
I0
s((g10
g2
g1
I5
tp214
g17
tp215
I0
s((g2
g2
g10
I2
tp216
g8
tp217
F-2.35675
s((g6
g6
g10
I5
tp218
g4
tp219
I0
s((g1
g1
g1
I2
tp220
g8
tp221
I0
s((g2
g10
g2
I1
tp222
g17
tp223
I0
s((g6
g10
g6
I6
tp224
g36
tp225
I0
s((g10
g6
g10
I10
tp226
g17
tp227
F1702.85
s((g6
g2
g10
I7
tp228
g36
tp229
I0
s((g1
g10
g6
I6
tp230
g14
tp231
I0
s((g1
g1
g6
I3
tp232
g8
tp233
I0
s((g10
g10
g6
I2
tp234
g17
tp235
I0
s((g6
g2
g2
I9
tp236
g8
tp237
F-0.5
s((g2
g6
g10
I10
tp238
g8
tp239
I0
s((g2
g2
g10
I7
tp240
g4
tp241
F5.687686050000002
s((g6
g6
g1
I5
tp242
g36
tp243
I0
s((g10
g10
g10
I3
tp244
g14
tp245
F0.03424113722986219
s((g2
g6
g1
I10
tp246
g8
tp247
I0
s((g1
g6
g2
I6
tp248
g36
tp249
I0
s((g10
g1
g10
I8
tp250
g17
tp251
I0
s((g6
g1
g1
I7
tp252
g36
tp253
I0
s((g6
g10
g10
I4
tp254
g14
tp255
F532.4277706459022
s((g1
g1
g2
I8
tp256
g14
tp257
I0
s((g1
g1
g10
I10
tp258
g4
tp259
I0
s((g10
g1
g10
I1
tp260
g14
tp261
I0
s((g10
g6
g1
I2
tp262
g36
tp263
I0
s((g10
g10
g2
I5
tp264
g36
tp265
F-1.2039536812116673
s((g10
g2
g2
I1
tp266
g14
tp267
I0
s((g6
g10
g1
I3
tp268
g4
tp269
I0
s((g6
g10
g1
I1
tp270
g4
tp271
I0
s((g6
g1
g2
I3
tp272
g17
tp273
I0
s((g2
g2
g1
I6
tp274
g14
tp275
I0
s((g1
g1
g6
I3
tp276
g36
tp277
I0
s((g2
g2
g1
I2
tp278
g8
tp279
I0
s((g1
g1
g1
I4
tp280
g14
tp281
I0
s((g6
g10
g6
I10
tp282
g17
tp283
I0
s((g6
g6
g6
I10
tp284
g14
tp285
F3624.239
s((g2
g1
g6
I2
tp286
g4
tp287
I0
s((g6
g6
g2
I9
tp288
g17
tp289
F732.2800345
s((g6
g2
g2
I7
tp290
g36
tp291
I0
s((g10
g10
g2
I5
tp292
g17
tp293
F-1.267940801166667
s((g10
g6
g6
I10
tp294
g8
tp295
I0
s((g2
g2
g2
I8
tp296
g8
tp297
F74.43249267460001
s((g10
g6
g1
I7
tp298
g14
tp299
I0
s((g2
g1
g10
I9
tp300
g17
tp301
I0
s((g2
g1
g6
I2
tp302
g36
tp303
I0
s((g10
g10
g1
I9
tp304
g36
tp305
I0
s((g2
g10
g6
I1
tp306
g17
tp307
I0
s((g2
g10
g2
I6
tp308
g4
tp309
F3.164951230051501
s((g2
g2
g10
I6
tp310
g36
tp311
F-1.355
s((g2
g2
g6
I3
tp312
g8
tp313
F-1.3145
s((g1
g6
g10
I2
tp314
g8
tp315
I0
s((g1
g2
g2
I6
tp316
g36
tp317
I0
s((g1
g2
g2
I9
tp318
g36
tp319
I0
s((g10
g10
g2
I8
tp320
g4
tp321
I0
s((g10
g1
g2
I2
tp322
g8
tp323
I0
s((g1
g2
g10
I2
tp324
g8
tp325
I0
s((g2
g10
g6
I2
tp326
g17
tp327
F-0.05500000000000001
s((g2
g10
g6
I2
tp328
g36
tp329
I0
s((g2
g1
g1
I11
tp330
g4
tp331
I0
s((g2
g6
g1
I9
tp332
g36
tp333
I0
s((g6
g6
g2
I9
tp334
g14
tp335
F8883.834770522702
s((g6
g1
g6
I7
tp336
g8
tp337
I0
s((g10
g2
g1
I10
tp338
g14
tp339
I0
s((g10
g1
g6
I8
tp340
g36
tp341
I0
s((g2
g2
g2
I4
tp342
g8
tp343
F-3.457101539327273
s((g2
g2
g10
I1
tp344
g14
tp345
I0
s((g2
g2
g10
I4
tp346
g14
tp347
F9188.071336442603
s((g6
g6
g10
I4
tp348
g4
tp349
I0
s((g1
g1
g6
I11
tp350
g14
tp351
I0
s((g2
g2
g2
I2
tp352
g4
tp353
F-4.37203661129471
s((g2
g2
g6
I11
tp354
g17
tp355
I0
s((g10
g1
g2
I3
tp356
g4
tp357
I0
s((g6
g10
g2
I3
tp358
g17
tp359
F-0.555
s((g6
g6
g6
I5
tp360
g14
tp361
F545.2321008338022
s((g10
g1
g6
I10
tp362
g4
tp363
I0
s((g1
g6
g2
I3
tp364
g36
tp365
I0
s((g2
g1
g6
I3
tp366
g4
tp367
I0
s((g2
g10
g10
I3
tp368
g36
tp369
F0.125
s((g6
g6
g6
I6
tp370
g17
tp371
I0
s((g2
g6
g6
I6
tp372
g17
tp373
F0.0
s((g2
g10
g1
I3
tp374
g8
tp375
I0
s((g10
g10
g1
I9
tp376
g4
tp377
I0
s((g2
g10
g10
I1
tp378
g8
tp379
I0
s((g6
g2
g6
I11
tp380
g8
tp381
I0
s((g6
g2
g10
I7
tp382
g4
tp383
I0
s((g6
g10
g10
I3
tp384
g8
tp385
I0
s((g6
g2
g6
I5
tp386
g8
tp387
I0
s((g10
g10
g1
I3
tp388
g4
tp389
I0
s((g2
g6
g6
I7
tp390
g14
tp391
F3138.431574552347
s((g1
g10
g10
I4
tp392
g4
tp393
I0
s((g10
g2
g6
I9
tp394
g17
tp395
I0
s((g1
g6
g1
I1
tp396
g36
tp397
I0
s((g6
g6
g2
I2
tp398
g14
tp399
F8289.642593111394
s((g1
g10
g10
I10
tp400
g36
tp401
I0
s((g1
g2
g6
I2
tp402
g4
tp403
I0
s((g2
g1
g2
I8
tp404
g4
tp405
I0
s((g6
g1
g10
I10
tp406
g36
tp407
I0
s((g1
g1
g2
I5
tp408
g36
tp409
I0
s((g10
g6
g10
I9
tp410
g4
tp411
I0
s((g10
g10
g10
I1
tp412
g14
tp413
I0
s((g1
g2
g1
I3
tp414
g14
tp415
I0
s((g10
g6
g1
I9
tp416
g4
tp417
I0
s((g10
g6
g10
I6
tp418
g8
tp419
I0
s((g1
g6
g10
I7
tp420
g8
tp421
I0
s((g2
g1
g1
I4
tp422
g36
tp423
I0
s((g6
g6
g1
I10
tp424
g8
tp425
I0
s((g2
g6
g6
I9
tp426
g36
tp427
I0
s((g10
g1
g6
I5
tp428
g17
tp429
I0
s((g10
g2
g10
I5
tp430
g17
tp431
F-0.95
s((g1
g6
g6
I8
tp432
g8
tp433
I0
s((g10
g2
g10
I1
tp434
g4
tp435
I0
s((g1
g2
g10
I3
tp436
g36
tp437
I0
s((g10
g1
g6
I2
tp438
g36
tp439
I0
s((g1
g10
g1
I2
tp440
g4
tp441
I0
s((g6
g1
g10
I2
tp442
g4
tp443
I0
s((g10
g10
g10
I4
tp444
g14
tp445
F1315.384679409694
s((g2
g6
g6
I4
tp446
g14
tp447
F808.0977962538473
s((g2
g10
g1
I4
tp448
g8
tp449
I0
s((g10
g6
g2
I10
tp450
g4
tp451
I0
s((g10
g6
g10
I5
tp452
g14
tp453
I0
s((g1
g10
g10
I4
tp454
g17
tp455
I0
s((g2
g2
g1
I5
tp456
g17
tp457
I0
s((g1
g10
g2
I6
tp458
g36
tp459
I0
s((g10
g2
g2
I8
tp460
g14
tp461
F12920.391835468567
s((g10
g2
g10
I1
tp462
g14
tp463
I0
s((g1
g1
g1
I1
tp464
g36
tp465
I0
s((g1
g6
g1
I11
tp466
g8
tp467
I0
s((g1
g1
g1
I11
tp468
g14
tp469
I0
s((g1
g10
g6
I11
tp470
g4
tp471
I0
s((g2
g10
g6
I10
tp472
g36
tp473
I0
s((g10
g6
g2
I2
tp474
g36
tp475
F0.13171476824049996
s((g6
g2
g2
I6
tp476
g8
tp477
F-0.5
s((g6
g6
g2
I3
tp478
g8
tp479
F1.3305612833333333
s((g6
g1
g1
I9
tp480
g36
tp481
I0
s((g2
g1
g2
I9
tp482
g17
tp483
I0
s((g2
g6
g2
I11
tp484
g8
tp485
I0
s((g1
g6
g2
I5
tp486
g8
tp487
I0
s((g2
g10
g10
I5
tp488
g4
tp489
F0.16188146033333337
s((g6
g1
g6
I6
tp490
g36
tp491
I0
s((g10
g1
g1
I4
tp492
g17
tp493
I0
s((g1
g6
g2
I11
tp494
g8
tp495
I0
s((g6
g2
g2
I3
tp496
g14
tp497
F5676.235884144041
s((g1
g1
g2
I4
tp498
g8
tp499
I0
s((g1
g2
g10
I2
tp500
g14
tp501
I0
s((g10
g6
g10
I7
tp502
g14
tp503
F46.10477400200344
s((g10
g1
g1
I2
tp504
g8
tp505
I0
s((g6
g1
g6
I4
tp506
g36
tp507
I0
s((g6
g2
g2
I9
tp508
g36
tp509
F297.2588845
s((g2
g2
g2
I4
tp510
g17
tp511
F-4.23853628290551
s((g1
g10
g6
I4
tp512
g8
tp513
I0
s((g2
g1
g2
I5
tp514
g8
tp515
I0
s((g1
g6
g6
I6
tp516
g4
tp517
I0
s((g1
g6
g6
I4
tp518
g4
tp519
I0
s((g1
g2
g6
I1
tp520
g4
tp521
I0
s((g2
g2
g2
I1
tp522
g36
tp523
I0
s((g2
g2
g10
I2
tp524
g17
tp525
F-3.9089868962166676
s((g2
g2
g10
I1
tp526
g17
tp527
I0
s((g6
g1
g1
I7
tp528
g17
tp529
I0
s((g1
g6
g2
I6
tp530
g4
tp531
I0
s((g1
g6
g2
I8
tp532
g4
tp533
I0
s((g1
g2
g2
I9
tp534
g14
tp535
I0
s((g6
g2
g6
I1
tp536
g4
tp537
I0
s((g2
g10
g6
I7
tp538
g4
tp539
I0
s((g6
g2
g10
I2
tp540
g14
tp541
F1188.074737733374
s((g6
g1
g1
I4
tp542
g14
tp543
I0
s((g1
g10
g10
I8
tp544
g8
tp545
I0
s((g6
g1
g10
I10
tp546
g4
tp547
I0
s((g2
g1
g2
I9
tp548
g8
tp549
I0
s((g1
g2
g10
I10
tp550
g14
tp551
I0
s((g1
g10
g10
I2
tp552
g17
tp553
I0
s((g2
g10
g1
I4
tp554
g4
tp555
I0
s((g1
g10
g2
I9
tp556
g17
tp557
I0
s((g10
g10
g6
I11
tp558
g36
tp559
I0
s((g6
g1
g10
I4
tp560
g4
tp561
I0
s((g2
g10
g1
I6
tp562
g14
tp563
I0
s((g1
g1
g6
I5
tp564
g36
tp565
I0
s((g6
g6
g10
I4
tp566
g14
tp567
I0
s((g1
g6
g10
I8
tp568
g8
tp569
I0
s((g6
g10
g6
I2
tp570
g4
tp571
I0
s((g6
g6
g10
I3
tp572
g4
tp573
I0
s((g1
g6
g2
I9
tp574
g14
tp575
I0
s((g10
g6
g2
I10
tp576
g36
tp577
I0
s((g2
g2
g6
I11
tp578
g4
tp579
I0
s((g6
g10
g2
I1
tp580
g4
tp581
I0
s((g10
g1
g1
I3
tp582
g14
tp583
I0
s((g6
g1
g6
I4
tp584
g17
tp585
I0
s((g2
g2
g1
I1
tp586
g36
tp587
I0
s((g1
g10
g1
I3
tp588
g36
tp589
I0
s((g2
g2
g6
I9
tp590
g17
tp591
I0
s((g6
g2
g1
I3
tp592
g4
tp593
I0
s((g10
g6
g1
I5
tp594
g17
tp595
I0
s((g1
g10
g1
I9
tp596
g17
tp597
I0
s((g6
g10
g6
I2
tp598
g8
tp599
I0
s((g1
g10
g6
I11
tp600
g36
tp601
I0
s((g10
g6
g6
I8
tp602
g4
tp603
I0
s((g10
g6
g6
I10
tp604
g4
tp605
I0
s((g2
g2
g2
I11
tp606
g17
tp607
I0
s((g6
g1
g2
I10
tp608
g8
tp609
I0
s((g1
g6
g1
I10
tp610
g8
tp611
I0
s((g2
g2
g10
I9
tp612
g14
tp613
F12325.778653869465
s((g1
g1
g10
I8
tp614
g36
tp615
I0
s((g6
g6
g2
I2
tp616
g36
tp617
F0.405
s((g6
g2
g2
I1
tp618
g8
tp619
I0
s((g10
g6
g2
I2
tp620
g17
tp621
F0.11629193754499992
s((g2
g2
g1
I4
tp622
g4
tp623
I0
s((g10
g1
g10
I8
tp624
g8
tp625
I0
s((g2
g10
g2
I8
tp626
g14
tp627
F12981.958785302444
s((g10
g2
g10
I2
tp628
g8
tp629
F-0.95
s((g1
g6
g10
I4
tp630
g17
tp631
I0
s((g2
g1
g2
I3
tp632
g17
tp633
I0
s((g10
g10
g2
I4
tp634
g8
tp635
F-0.998824616666667
s((g6
g2
g6
I1
tp636
g8
tp637
I0
s((g10
g6
g6
I4
tp638
g17
tp639
I0
s((g1
g6
g2
I11
tp640
g14
tp641
I0
s((g10
g10
g2
I3
tp642
g4
tp643
F-0.18621881171666702
s((g10
g2
g1
I11
tp644
g8
tp645
I0
s((g1
g10
g6
I3
tp646
g8
tp647
I0
s((g10
g2
g10
I5
tp648
g36
tp649
I0
s((g10
g6
g6
I11
tp650
g8
tp651
I0
s((g10
g6
g10
I10
tp652
g8
tp653
I0
s((g2
g6
g2
I8
tp654
g14
tp655
F12191.817851583046
s((g6
g1
g1
I6
tp656
g8
tp657
I0
s((g2
g1
g6
I11
tp658
g8
tp659
I0
s((g1
g6
g2
I8
tp660
g36
tp661
I0
s((g6
g1
g10
I2
tp662
g14
tp663
I0
s((g1
g1
g1
I9
tp664
g8
tp665
I0
s((g10
g2
g10
I6
tp666
g36
tp667
F-0.95
s((g10
g6
g10
I5
tp668
g4
tp669
I0
s((g6
g10
g1
I1
tp670
g36
tp671
I0
s((g10
g10
g1
I7
tp672
g8
tp673
I0
s((g6
g6
g10
I7
tp674
g8
tp675
I0
s((g6
g6
g2
I5
tp676
g4
tp677
F1.153982223
s((g6
g1
g6
I11
tp678
g17
tp679
I0
s((g2
g1
g2
I4
tp680
g36
tp681
I0
s((g1
g1
g6
I2
tp682
g36
tp683
I0
s((g1
g2
g6
I6
tp684
g17
tp685
I0
s((g1
g2
g6
I7
tp686
g36
tp687
I0
s((g10
g2
g6
I1
tp688
g8
tp689
I0
s((g6
g6
g6
I1
tp690
g14
tp691
I0
s((g6
g2
g1
I11
tp692
g36
tp693
I0
s((g10
g10
g10
I9
tp694
g36
tp695
I0
s((g1
g10
g6
I2
tp696
g36
tp697
I0
s((g6
g1
g1
I11
tp698
g4
tp699
I0
s((g2
g10
g2
I11
tp700
g17
tp701
I0
s((g1
g6
g10
I11
tp702
g36
tp703
I0
s((g1
g2
g1
I6
tp704
g14
tp705
I0
s((g2
g1
g1
I1
tp706
g4
tp707
I0
s((g1
g2
g6
I6
tp708
g8
tp709
I0
s((g6
g2
g2
I1
tp710
g4
tp711
I0
s((g1
g10
g2
I8
tp712
g8
tp713
I0
s((g10
g2
g10
I7
tp714
g8
tp715
F-0.9950000000000001
s((g2
g6
g2
I5
tp716
g36
tp717
I0
s((g1
g10
g10
I1
tp718
g36
tp719
I0
s((g1
g6
g1
I4
tp720
g14
tp721
I0
s((g10
g2
g2
I1
tp722
g36
tp723
I0
s((g2
g10
g10
I11
tp724
g8
tp725
I0
s((g10
g6
g10
I4
tp726
g17
tp727
I0
s((g1
g10
g6
I6
tp728
g8
tp729
I0
s((g1
g6
g6
I8
tp730
g4
tp731
I0
s((g1
g6
g10
I1
tp732
g14
tp733
I0
s((g10
g6
g2
I1
tp734
g14
tp735
I0
s((g6
g10
g6
I11
tp736
g14
tp737
I0
s((g2
g6
g1
I9
tp738
g17
tp739
I0
s((g1
g1
g2
I2
tp740
g4
tp741
I0
s((g1
g2
g2
I7
tp742
g14
tp743
I0
s((g2
g6
g1
I6
tp744
g14
tp745
I0
s((g10
g10
g10
I7
tp746
g17
tp747
F0.0
s((g2
g6
g10
I10
tp748
g36
tp749
I0
s((g2
g10
g6
I9
tp750
g14
tp751
F2860.740444763417
s((g10
g2
g1
I8
tp752
g8
tp753
I0
s((g1
g1
g1
I8
tp754
g14
tp755
I0
s((g2
g2
g6
I7
tp756
g17
tp757
F-0.95
s((g2
g6
g2
I1
tp758
g8
tp759
I0
s((g10
g6
g2
I3
tp760
g14
tp761
F692.4127254833377
s((g1
g10
g6
I9
tp762
g17
tp763
I0
s((g1
g2
g1
I11
tp764
g36
tp765
I0
s((g6
g1
g2
I6
tp766
g4
tp767
I0
s((g6
g10
g1
I4
tp768
g17
tp769
I0
s((g6
g2
g2
I2
tp770
g14
tp771
F9118.678301540014
s((g10
g2
g2
I5
tp772
g8
tp773
F-3.2161706571177504
s((g6
g10
g6
I1
tp774
g36
tp775
I0
s((g2
g1
g10
I6
tp776
g14
tp777
I0
s((g6
g6
g2
I9
tp778
g36
tp779
F154.59500000000003
s((g1
g2
g6
I2
tp780
g36
tp781
I0
s((g6
g2
g2
I3
tp782
g8
tp783
F-1.073095
s((g2
g2
g2
I10
tp784
g4
tp785
F9262.044117362411
s((g2
g1
g10
I8
tp786
g36
tp787
I0
s((g2
g6
g10
I4
tp788
g4
tp789
I0
s((g2
g2
g6
I3
tp790
g14
tp791
F5779.914442301365
s((g1
g10
g1
I3
tp792
g14
tp793
I0
s((g10
g10
g2
I11
tp794
g36
tp795
I0
s((g10
g6
g1
I9
tp796
g36
tp797
I0
s((g1
g6
g10
I2
tp798
g36
tp799
I0
s((g2
g1
g6
I10
tp800
g17
tp801
I0
s((g2
g6
g6
I1
tp802
g14
tp803
I0
s((g2
g10
g10
I3
tp804
g4
tp805
I0
s((g2
g2
g1
I1
tp806
g17
tp807
I0
s((g10
g2
g6
I11
tp808
g8
tp809
I0
s((g2
g2
g1
I8
tp810
g17
tp811
I0
s((g10
g1
g1
I7
tp812
g8
tp813
I0
s((g10
g2
g10
I4
tp814
g17
tp815
F-1.355
s((g6
g10
g10
I11
tp816
g8
tp817
I0
s((g6
g6
g2
I9
tp818
g8
tp819
F152.595
s((g1
g2
g6
I9
tp820
g8
tp821
I0
s((g10
g6
g2
I4
tp822
g14
tp823
F2090.0523420198633
s((g2
g10
g2
I6
tp824
g36
tp825
F1.7807018456259862
s((g6
g1
g10
I2
tp826
g8
tp827
I0
s((g1
g1
g6
I1
tp828
g4
tp829
F-4.1806
s((g10
g6
g6
I1
tp830
g4
tp831
I0
s((g2
g10
g6
I7
tp832
g14
tp833
F1962.2114776531498
s((g2
g6
g2
I8
tp834
g17
tp835
F105.09670498005005
s((g10
g2
g6
I6
tp836
g17
tp837
I0
s((g2
g1
g2
I1
tp838
g8
tp839
I0
s((g10
g10
g10
I10
tp840
g8
tp841
F601.0
s((g2
g1
g2
I7
tp842
g8
tp843
I0
s((g1
g6
g2
I1
tp844
g14
tp845
I0
s((g1
g10
g2
I4
tp846
g4
tp847
I0
s((g10
g2
g2
I6
tp848
g36
tp849
F-3.106182224310001
s((g6
g2
g1
I10
tp850
g8
tp851
I0
s((g2
g10
g1
I7
tp852
g17
tp853
I0
s((g2
g6
g10
I5
tp854
g14
tp855
F27.103006881183873
s((g10
g1
g6
I9
tp856
g14
tp857
I0
s((g1
g2
g10
I6
tp858
g8
tp859
I0
s((g1
g2
g10
I11
tp860
g4
tp861
I0
s((g2
g6
g6
I8
tp862
g36
tp863
I0
s((g2
g6
g10
I11
tp864
g8
tp865
I0
s((g2
g1
g1
I6
tp866
g8
tp867
I0
s((g6
g10
g10
I7
tp868
g14
tp869
I0
s((g6
g10
g10
I10
tp870
g4
tp871
I0
s((g6
g1
g6
I2
tp872
g4
tp873
I0
s((g1
g10
g1
I11
tp874
g4
tp875
I0
s((g6
g1
g10
I8
tp876
g4
tp877
I0
s((g10
g2
g10
I1
tp878
g17
tp879
I0
s((g6
g10
g2
I4
tp880
g17
tp881
I0
s((g1
g2
g1
I6
tp882
g8
tp883
I0
s((g6
g1
g6
I9
tp884
g4
tp885
I0
s((g10
g10
g1
I9
tp886
g8
tp887
I0
s((g10
g10
g10
I6
tp888
g36
tp889
F0.0
s((g10
g6
g2
I5
tp890
g4
tp891
I0
s((g1
g10
g6
I1
tp892
g17
tp893
I0
s((g6
g10
g1
I2
tp894
g8
tp895
I0
s((g10
g2
g10
I9
tp896
g4
tp897
F295.9965833333333
s((g10
g10
g1
I8
tp898
g8
tp899
I0
s((g10
g10
g1
I10
tp900
g17
tp901
I0
s((g2
g6
g6
I4
tp902
g8
tp903
F0.0
s((g1
g6
g1
I9
tp904
g4
tp905
I0
s((g6
g6
g1
I8
tp906
g36
tp907
I0
s((g6
g1
g10
I7
tp908
g36
tp909
I0
s((g6
g6
g2
I5
tp910
g14
tp911
F10200.600559398154
s((g6
g10
g10
I9
tp912
g17
tp913
I0
s((g6
g2
g6
I3
tp914
g36
tp915
I0
s((g10
g6
g6
I6
tp916
g4
tp917
I0
s((g10
g1
g1
I2
tp918
g17
tp919
I0
s((g2
g6
g6
I7
tp920
g17
tp921
I0
s((g10
g2
g6
I3
tp922
g17
tp923
I0
s((g2
g1
g2
I4
tp924
g8
tp925
I0
s((g6
g6
g10
I9
tp926
g14
tp927
I0
s((g6
g6
g6
I2
tp928
g36
tp929
I0
s((g10
g1
g10
I10
tp930
g4
tp931
I0
s((g2
g6
g10
I4
tp932
g36
tp933
I0
s((g1
g1
g2
I7
tp934
g36
tp935
I0
s((g6
g1
g10
I7
tp936
g8
tp937
I0
s((g1
g10
g1
I5
tp938
g36
tp939
I0
s((g6
g2
g2
I2
tp940
g8
tp941
F-2.2402859689500003
s((g10
g2
g1
I10
tp942
g8
tp943
I0
s((g2
g10
g1
I4
tp944
g36
tp945
I0
s((g10
g10
g1
I9
tp946
g14
tp947
I0
s((g1
g2
g10
I7
tp948
g17
tp949
I0
s((g2
g1
g1
I11
tp950
g8
tp951
I0
s((g2
g1
g2
I11
tp952
g14
tp953
I0
s((g2
g2
g2
I11
tp954
g4
tp955
I0
s((g2
g2
g1
I10
tp956
g8
tp957
I0
s((g6
g2
g6
I5
tp958
g36
tp959
I0
s((g6
g2
g10
I11
tp960
g36
tp961
I0
s((g1
g2
g2
I7
tp962
g36
tp963
I0
s((g2
g6
g1
I11
tp964
g36
tp965
I0
s((g6
g6
g1
I7
tp966
g14
tp967
I0
s((g2
g10
g10
I9
tp968
g17
tp969
F164.48375000000001
s((g1
g2
g10
I4
tp970
g36
tp971
I0
s((g6
g2
g10
I5
tp972
g36
tp973
I0
s((g2
g10
g2
I5
tp974
g4
tp975
F0.6291262350000001
s((g10
g2
g2
I3
tp976
g36
tp977
F-0.9375
s((g2
g1
g2
I9
tp978
g4
tp979
I0
s((g6
g1
g10
I11
tp980
g8
tp981
I0
s((g1
g1
g10
I10
tp982
g8
tp983
I0
s((g10
g10
g2
I10
tp984
g17
tp985
F2831.258333333333
s((g6
g10
g10
I9
tp986
g14
tp987
F1258.9032287229863
s((g6
g10
g1
I7
tp988
g8
tp989
I0
s((g1
g10
g2
I6
tp990
g17
tp991
I0
s((g6
g1
g10
I9
tp992
g14
tp993
I0
s((g10
g2
g2
I3
tp994
g17
tp995
F-2.1164045895
s((g1
g6
g1
I8
tp996
g4
tp997
I0
s((g10
g10
g1
I7
tp998
g17
tp999
I0
s((g6
g6
g10
I11
tp1000
g36
tp1001
I0
s((g10
g10
g6
I6
tp1002
g17
tp1003
I0
s((g2
g2
g6
I8
tp1004
g8
tp1005
F11.005000000000003
s((g1
g2
g6
I4
tp1006
g17
tp1007
I0
s((g1
g6
g10
I9
tp1008
g4
tp1009
I0
s((g2
g6
g10
I10
tp1010
g4
tp1011
I0
s((g1
g2
g10
I6
tp1012
g14
tp1013
I0
s((g1
g6
g10
I6
tp1014
g4
tp1015
I0
s((g10
g6
g6
I8
tp1016
g36
tp1017
I0
s((g2
g6
g10
I2
tp1018
g14
tp1019
F141.6891130357849
s((g1
g6
g10
I3
tp1020
g14
tp1021
I0
s((g6
g2
g6
I7
tp1022
g36
tp1023
I0
s((g10
g2
g2
I10
tp1024
g36
tp1025
F2500.95
s((g10
g1
g1
I6
tp1026
g36
tp1027
I0
s((g6
g10
g10
I5
tp1028
g4
tp1029
I0
s((g2
g6
g2
I10
tp1030
g14
tp1031
F12580.698791244753
s((g1
g10
g1
I9
tp1032
g4
tp1033
I0
s((g2
g2
g2
I9
tp1034
g17
tp1035
F1128.013680854565
s((g6
g6
g2
I10
tp1036
g17
tp1037
F2392.85
s((g6
g6
g2
I1
tp1038
g17
tp1039
I0
s((g10
g2
g10
I10
tp1040
g14
tp1041
F6498.337845050837
s((g6
g6
g1
I11
tp1042
g8
tp1043
I0
s((g2
g1
g1
I2
tp1044
g4
tp1045
I0
s((g2
g10
g1
I6
tp1046
g8
tp1047
I0
s((g6
g10
g6
I8
tp1048
g14
tp1049
I0
s((g2
g1
g6
I5
tp1050
g14
tp1051
I0
s((g10
g2
g10
I3
tp1052
g8
tp1053
F-0.55
s((g1
g6
g10
I8
tp1054
g14
tp1055
I0
s((g10
g10
g6
I8
tp1056
g17
tp1057
I0
s((g1
g2
g1
I5
tp1058
g8
tp1059
I0
s((g1
g2
g10
I1
tp1060
g36
tp1061
I0
s((g6
g2
g1
I9
tp1062
g14
tp1063
I0
s((g6
g10
g10
I1
tp1064
g8
tp1065
I0
s((g6
g1
g1
I6
tp1066
g17
tp1067
I0
s((g10
g1
g6
I4
tp1068
g8
tp1069
I0
s((g10
g6
g2
I10
tp1070
g8
tp1071
I0
s((g6
g2
g6
I10
tp1072
g4
tp1073
I0
s((g6
g10
g10
I7
tp1074
g4
tp1075
I0
s((g2
g10
g2
I3
tp1076
g36
tp1077
F0.85693
s((g10
g2
g6
I2
tp1078
g36
tp1079
I0
s((g10
g10
g10
I6
tp1080
g8
tp1081
F-0.09950000000000002
s((g10
g6
g6
I5
tp1082
g17
tp1083
I0
s((g10
g1
g10
I6
tp1084
g4
tp1085
I0
s((g10
g1
g10
I4
tp1086
g4
tp1087
I0
s((g2
g1
g6
I11
tp1088
g17
tp1089
I0
s((g2
g1
g10
I4
tp1090
g8
tp1091
I0
s((g10
g1
g2
I7
tp1092
g8
tp1093
I0
s((g10
g1
g2
I8
tp1094
g17
tp1095
I0
s((g2
g1
g1
I9
tp1096
g14
tp1097
I0
s((g1
g2
g6
I10
tp1098
g17
tp1099
I0
s((g6
g6
g2
I8
tp1100
g4
tp1101
F184.68901350309503
s((g1
g6
g2
I2
tp1102
g14
tp1103
I0
s((g6
g10
g2
I5
tp1104
g4
tp1105
F-0.604015133721
s((g1
g6
g6
I5
tp1106
g8
tp1107
I0
s((g6
g1
g10
I6
tp1108
g36
tp1109
I0
s((g1
g1
g2
I8
tp1110
g36
tp1111
I0
s((g2
g6
g6
I2
tp1112
g17
tp1113
I0
s((g6
g6
g2
I10
tp1114
g14
tp1115
F8642.957456290307
s((g10
g2
g6
I1
tp1116
g17
tp1117
I0
s((g10
g2
g6
I2
tp1118
g8
tp1119
F0.5
s((g1
g1
g2
I10
tp1120
g17
tp1121
I0
s((g6
g6
g1
I7
tp1122
g8
tp1123
I0
s((g2
g6
g1
I8
tp1124
g4
tp1125
I0
s((g1
g6
g1
I10
tp1126
g14
tp1127
I0
s((g6
g1
g10
I8
tp1128
g36
tp1129
I0
s((g6
g1
g1
I7
tp1130
g14
tp1131
I0
s((g1
g1
g10
I5
tp1132
g4
tp1133
I0
s((g2
g2
g6
I7
tp1134
g14
tp1135
F9308.991720302081
s((g1
g2
g2
I2
tp1136
g8
tp1137
I0
s((g2
g1
g1
I8
tp1138
g14
tp1139
I0
s((g10
g1
g1
I1
tp1140
g17
tp1141
I0
s((g10
g10
g6
I9
tp1142
g14
tp1143
F2744.2417001980193
s((g10
g1
g2
I5
tp1144
g4
tp1145
I0
s((g1
g2
g2
I10
tp1146
g4
tp1147
I0
s((g6
g2
g2
I5
tp1148
g8
tp1149
F-0.95
s((g2
g2
g6
I9
tp1150
g36
tp1151
I0
s((g1
g2
g6
I4
tp1152
g4
tp1153
I0
s((g1
g6
g2
I5
tp1154
g17
tp1155
I0
s((g1
g10
g10
I7
tp1156
g4
tp1157
I0
s((g1
g1
g1
I6
tp1158
g17
tp1159
I0
s((g1
g1
g10
I1
tp1160
g14
tp1161
F8475.492089619387
s((g6
g1
g2
I6
tp1162
g36
tp1163
I0
s((g10
g2
g1
I8
tp1164
g14
tp1165
I0
s((g1
g2
g10
I7
tp1166
g36
tp1167
I0
s((g1
g2
g1
I6
tp1168
g36
tp1169
I0
s((g1
g6
g6
I3
tp1170
g4
tp1171
I0
s((g10
g2
g10
I6
tp1172
g8
tp1173
F-0.95
s((g1
g10
g6
I8
tp1174
g14
tp1175
I0
s((g6
g1
g10
I9
tp1176
g17
tp1177
I0
s((g1
g6
g2
I10
tp1178
g14
tp1179
I0
s((g2
g10
g2
I3
tp1180
g17
tp1181
F1.4026007978050004
s((g6
g10
g1
I4
tp1182
g8
tp1183
I0
s((g2
g6
g1
I9
tp1184
g14
tp1185
I0
s((g1
g10
g6
I9
tp1186
g8
tp1187
I0
s((g6
g6
g1
I5
tp1188
g17
tp1189
I0
s((g6
g2
g6
I4
tp1190
g4
tp1191
I0
s((g6
g1
g2
I2
tp1192
g8
tp1193
I0
s((g6
g10
g1
I8
tp1194
g14
tp1195
I0
s((g10
g2
g2
I2
tp1196
g36
tp1197
F-1.589595
s((g1
g1
g6
I11
tp1198
g36
tp1199
I0
s((g6
g6
g1
I4
tp1200
g36
tp1201
I0
s((g10
g2
g10
I2
tp1202
g36
tp1203
F-0.5
s((g2
g1
g10
I4
tp1204
g4
tp1205
I0
s((g1
g2
g6
I6
tp1206
g14
tp1207
I0
s((g10
g2
g1
I6
tp1208
g14
tp1209
I0
s((g1
g10
g10
I4
tp1210
g14
tp1211
I0
s((g10
g2
g10
I10
tp1212
g8
tp1213
F600.5
s((g2
g6
g2
I2
tp1214
g4
tp1215
F0.11027024037595004
s((g2
g10
g1
I1
tp1216
g4
tp1217
I0
s((g10
g10
g6
I8
tp1218
g8
tp1219
I0
s((g1
g6
g6
I2
tp1220
g14
tp1221
I0
s((g1
g2
g1
I11
tp1222
g14
tp1223
I0
s((g1
g6
g10
I11
tp1224
g4
tp1225
I0
s((g10
g1
g6
I3
tp1226
g8
tp1227
I0
s((g1
g2
g10
I4
tp1228
g17
tp1229
I0
s((g1
g10
g10
I5
tp1230
g8
tp1231
I0
s((g6
g2
g2
I2
tp1232
g36
tp1233
F-2.7958797555
s((g6
g2
g6
I9
tp1234
g8
tp1235
I0
s((g10
g1
g1
I3
tp1236
g8
tp1237
I0
s((g6
g6
g1
I4
tp1238
g8
tp1239
I0
s((g2
g10
g6
I10
tp1240
g17
tp1241
I0
s((g2
g10
g10
I6
tp1242
g4
tp1243
F0.07500000000000001
s((g1
g6
g10
I5
tp1244
g4
tp1245
I0
s((g1
g6
g10
I3
tp1246
g36
tp1247
I0
s((g2
g6
g2
I4
tp1248
g8
tp1249
I0
s((g1
g2
g1
I2
tp1250
g36
tp1251
I0
s((g6
g2
g10
I6
tp1252
g4
tp1253
F-0.3368796964999998
s((g10
g2
g1
I3
tp1254
g4
tp1255
I0
s((g1
g6
g2
I11
tp1256
g17
tp1257
I0
s((g1
g1
g2
I1
tp1258
g36
tp1259
F-10.924424997151558
s((g10
g1
g10
I9
tp1260
g8
tp1261
I0
s((g6
g1
g10
I1
tp1262
g14
tp1263
I0
s((g1
g10
g10
I5
tp1264
g36
tp1265
I0
s((g1
g6
g1
I9
tp1266
g17
tp1267
I0
s((g10
g2
g2
I6
tp1268
g17
tp1269
F-1.9054647555000004
s((g1
g2
g1
I3
tp1270
g36
tp1271
I0
s((g10
g2
g10
I4
tp1272
g36
tp1273
F-0.95
s((g6
g1
g2
I11
tp1274
g8
tp1275
I0
s((g6
g10
g6
I1
tp1276
g8
tp1277
I0
s((g6
g10
g2
I6
tp1278
g14
tp1279
F6269.91288273016
s((g10
g1
g6
I7
tp1280
g14
tp1281
I0
s((g1
g1
g1
I5
tp1282
g8
tp1283
I0
s((g6
g2
g2
I6
tp1284
g14
tp1285
F11103.820347334837
s((g1
g2
g1
I1
tp1286
g36
tp1287
I0
s((g6
g6
g10
I5
tp1288
g8
tp1289
F-0.21666666666666676
s((g10
g2
g2
I3
tp1290
g4
tp1291
F-1.0713314811
s((g6
g1
g10
I4
tp1292
g8
tp1293
I0
s((g2
g1
g6
I7
tp1294
g14
tp1295
I0
s((g10
g1
g2
I11
tp1296
g8
tp1297
I0
s((g2
g2
g6
I10
tp1298
g17
tp1299
F2480.95
s((g1
g6
g10
I10
tp1300
g14
tp1301
I0
s((g6
g1
g1
I7
tp1302
g8
tp1303
I0
s((g1
g6
g2
I5
tp1304
g36
tp1305
I0
s((g6
g6
g6
I4
tp1306
g4
tp1307
F0.0
s((g2
g2
g10
I10
tp1308
g4
tp1309
F5476.81755
s((g1
g10
g2
I4
tp1310
g17
tp1311
I0
s((g6
g1
g6
I10
tp1312
g4
tp1313
I0
s((g6
g1
g6
I8
tp1314
g4
tp1315
I0
s((g2
g1
g1
I4
tp1316
g17
tp1317
I0
s((g2
g6
g2
I9
tp1318
g14
tp1319
F12526.807417176273
s((g10
g6
g2
I2
tp1320
g14
tp1321
F2858.9975806877696
s((g1
g2
g1
I1
tp1322
g8
tp1323
I0
s((g6
g2
g10
I4
tp1324
g8
tp1325
I0
s((g1
g10
g2
I3
tp1326
g8
tp1327
I0
s((g2
g10
g6
I6
tp1328
g36
tp1329
I0
s((g1
g1
g1
I1
tp1330
g14
tp1331
I0
s((g6
g10
g1
I3
tp1332
g8
tp1333
I0
s((g10
g10
g6
I2
tp1334
g36
tp1335
I0
s((g6
g1
g6
I8
tp1336
g8
tp1337
I0
s((g10
g1
g6
I3
tp1338
g4
tp1339
I0
s((g2
g2
g1
I3
tp1340
g36
tp1341
I0
s((g1
g6
g2
I10
tp1342
g8
tp1343
I0
s((g1
g2
g2
I9
tp1344
g8
tp1345
I0
s((g6
g1
g6
I4
tp1346
g14
tp1347
I0
s((g1
g2
g2
I5
tp1348
g4
tp1349
I0
s((g6
g10
g10
I3
tp1350
g17
tp1351
I0
s((g1
g6
g2
I9
tp1352
g17
tp1353
I0
s((g10
g6
g6
I3
tp1354
g36
tp1355
I0
s((g6
g2
g1
I4
tp1356
g14
tp1357
I0
s((g6
g1
g1
I5
tp1358
g4
tp1359
I0
s((g2
g6
g6
I8
tp1360
g8
tp1361
F9.955000000000002
s((g1
g2
g10
I1
tp1362
g8
tp1363
I0
s((g2
g1
g2
I7
tp1364
g14
tp1365
I0
s((g10
g2
g6
I5
tp1366
g4
tp1367
I0
s((g6
g2
g10
I5
tp1368
g4
tp1369
F-0.4631185396666667
s((g6
g6
g1
I3
tp1370
g14
tp1371
I0
s((g1
g10
g1
I7
tp1372
g14
tp1373
I0
s((g1
g2
g6
I11
tp1374
g4
tp1375
I0
s((g10
g6
g2
I9
tp1376
g36
tp1377
I0
s((g6
g10
g2
I5
tp1378
g36
tp1379
I0
s((g6
g10
g1
I2
tp1380
g36
tp1381
I0
s((g6
g1
g6
I7
tp1382
g17
tp1383
I0
s((g10
g2
g2
I1
tp1384
g17
tp1385
I0
s((g6
g1
g10
I3
tp1386
g17
tp1387
I0
s((g6
g2
g10
I6
tp1388
g36
tp1389
F-0.5224700000000001
s((g10
g10
g6
I7
tp1390
g36
tp1391
I0
s((g1
g1
g1
I4
tp1392
g36
tp1393
I0
s((g10
g2
g6
I6
tp1394
g4
tp1395
I0
s((g10
g2
g1
I4
tp1396
g36
tp1397
I0
s((g10
g2
g6
I10
tp1398
g4
tp1399
I0
s((g1
g2
g10
I10
tp1400
g36
tp1401
I0
s((g2
g10
g6
I6
tp1402
g4
tp1403
F5.750260132388002
s((g2
g1
g1
I9
tp1404
g17
tp1405
I0
s((g2
g6
g10
I2
tp1406
g8
tp1407
I0
s((g10
g10
g6
I2
tp1408
g14
tp1409
F214.791686043531
s((g2
g1
g1
I1
tp1410
g14
tp1411
I0
s((g1
g10
g6
I6
tp1412
g17
tp1413
I0
s((g2
g6
g10
I8
tp1414
g17
tp1415
I0
s((g2
g2
g6
I8
tp1416
g17
tp1417
F-0.5
s((g2
g1
g1
I10
tp1418
g17
tp1419
I0
s((g2
g6
g1
I11
tp1420
g14
tp1421
I0
s((g6
g6
g10
I4
tp1422
g36
tp1423
I0
s((g6
g10
g1
I4
tp1424
g36
tp1425
I0
s((g2
g2
g2
I10
tp1426
g8
tp1427
F8342.911194856835
s((g1
g1
g1
I4
tp1428
g8
tp1429
I0
s((g2
g10
g1
I3
tp1430
g4
tp1431
I0
s((g10
g2
g1
I8
tp1432
g4
tp1433
I0
s((g10
g6
g2
I8
tp1434
g17
tp1435
I0
s((g10
g1
g2
I6
tp1436
g36
tp1437
I0
s((g2
g1
g1
I11
tp1438
g14
tp1439
I0
s((g1
g2
g6
I1
tp1440
g17
tp1441
I0
s((g6
g10
g2
I11
tp1442
g14
tp1443
I0
s((g10
g2
g1
I2
tp1444
g17
tp1445
I0
s((g1
g10
g10
I6
tp1446
g14
tp1447
I0
s((g2
g6
g10
I6
tp1448
g14
tp1449
I0
s((g2
g6
g1
I1
tp1450
g14
tp1451
I0
s((g1
g1
g2
I1
tp1452
g14
tp1453
F9576.148957482987
s((g2
g10
g10
I8
tp1454
g36
tp1455
I0
s((g10
g10
g1
I4
tp1456
g8
tp1457
I0
s((g1
g1
g2
I4
tp1458
g36
tp1459
I0
s((g6
g2
g6
I8
tp1460
g14
tp1461
I0
s((g1
g6
g1
I2
tp1462
g17
tp1463
I0
s((g6
g10
g10
I11
tp1464
g4
tp1465
I0
s((g6
g6
g1
I3
tp1466
g8
tp1467
I0
s((g6
g1
g1
I3
tp1468
g14
tp1469
I0
s((g1
g6
g6
I3
tp1470
g8
tp1471
I0
s((g6
g1
g2
I9
tp1472
g14
tp1473
I0
s((g10
g2
g10
I5
tp1474
g14
tp1475
F5579.7316731902665
s((g10
g2
g2
I8
tp1476
g17
tp1477
F29.9070375
s((g10
g1
g10
I6
tp1478
g8
tp1479
I0
s((g10
g2
g10
I4
tp1480
g14
tp1481
F1009.9153240305559
s((g10
g2
g2
I8
tp1482
g8
tp1483
F3.2679494500000015
s((g10
g6
g10
I5
tp1484
g17
tp1485
I0
s((g2
g2
g10
I4
tp1486
g8
tp1487
F-3.317979974852373
s((g6
g10
g6
I6
tp1488
g17
tp1489
I0
s((g6
g10
g6
I4
tp1490
g17
tp1491
I0
s((g2
g6
g1
I4
tp1492
g8
tp1493
I0
s((g1
g1
g6
I11
tp1494
g8
tp1495
I0
s((g6
g10
g6
I7
tp1496
g17
tp1497
F0.10000000000000009
s((g10
g10
g1
I3
tp1498
g36
tp1499
I0
s((g6
g10
g1
I6
tp1500
g36
tp1501
I0
s((g6
g6
g2
I2
tp1502
g17
tp1503
F0.5
s((g1
g2
g6
I7
tp1504
g17
tp1505
I0
s((g6
g1
g10
I2
tp1506
g17
tp1507
I0
s((g2
g1
g10
I4
tp1508
g17
tp1509
I0
s((g10
g1
g1
I5
tp1510
g8
tp1511
I0
s((g1
g6
g2
I11
tp1512
g36
tp1513
I0
s((g10
g2
g6
I2
tp1514
g4
tp1515
F0.84640588763
s((g10
g2
g1
I3
tp1516
g36
tp1517
I0
s((g1
g10
g1
I9
tp1518
g8
tp1519
I0
s((g10
g10
g10
I1
tp1520
g17
tp1521
I0
s((g6
g6
g10
I2
tp1522
g17
tp1523
I0
s((g6
g10
g2
I11
tp1524
g17
tp1525
I0
s((g6
g1
g1
I8
tp1526
g8
tp1527
I0
s((g10
g10
g6
I8
tp1528
g4
tp1529
I0
s((g2
g1
g2
I10
tp1530
g8
tp1531
I0
s((g10
g10
g10
I7
tp1532
g8
tp1533
F0.0
s((g6
g6
g6
I6
tp1534
g14
tp1535
F416.666297393533
s((g2
g1
g6
I7
tp1536
g36
tp1537
I0
s((g1
g10
g1
I2
tp1538
g14
tp1539
I0
s((g2
g6
g2
I9
tp1540
g4
tp1541
F266.285
s((g10
g2
g10
I11
tp1542
g4
tp1543
I0
s((g1
g10
g2
I8
tp1544
g14
tp1545
I0
s((g10
g6
g2
I2
tp1546
g4
tp1547
F0.5
s((g1
g1
g6
I5
tp1548
g17
tp1549
I0
s((g1
g10
g10
I3
tp1550
g36
tp1551
I0
s((g2
g1
g2
I11
tp1552
g36
tp1553
I0
s((g1
g10
g10
I7
tp1554
g17
tp1555
I0
s((g6
g1
g1
I8
tp1556
g36
tp1557
I0
s((g2
g10
g2
I3
tp1558
g14
tp1559
F10147.902979281916
s((g10
g2
g1
I10
tp1560
g17
tp1561
I0
s((g6
g6
g1
I2
tp1562
g4
tp1563
I0
s((g6
g6
g6
I1
tp1564
g36
tp1565
I0
s((g10
g10
g2
I11
tp1566
g17
tp1567
I0
s((g2
g2
g2
I6
tp1568
g36
tp1569
F-4.468459508611206
s((g10
g1
g10
I9
tp1570
g4
tp1571
I0
s((g6
g6
g6
I8
tp1572
g17
tp1573
F0.0
s((g1
g1
g10
I8
tp1574
g4
tp1575
I0
s((g6
g6
g6
I11
tp1576
g17
tp1577
I0
s((g6
g6
g10
I1
tp1578
g17
tp1579
I0
s((g1
g6
g1
I2
tp1580
g8
tp1581
I0
s((g1
g10
g10
I3
tp1582
g8
tp1583
I0
s((g2
g1
g2
I6
tp1584
g17
tp1585
I0
s((g1
g1
g10
I9
tp1586
g4
tp1587
I0
s((g10
g10
g1
I2
tp1588
g4
tp1589
I0
s((g2
g1
g10
I4
tp1590
g36
tp1591
I0
s((g1
g1
g10
I11
tp1592
g4
tp1593
I0
s((g6
g6
g10
I4
tp1594
g17
tp1595
I0
s((g2
g10
g2
I8
tp1596
g4
tp1597
F618.0336670865526
s((g6
g2
g2
I4
tp1598
g4
tp1599
F-1.3771139838500002
s((g6
g6
g2
I8
tp1600
g17
tp1601
I0
s((g6
g10
g2
I5
tp1602
g17
tp1603
F-1.2349
s((g6
g2
g1
I2
tp1604
g14
tp1605
I0
s((g6
g1
g2
I2
tp1606
g17
tp1607
I0
s((g2
g10
g2
I1
tp1608
g4
tp1609
I0
s((g1
g6
g1
I3
tp1610
g8
tp1611
I0
s((g6
g2
g10
I5
tp1612
g8
tp1613
I0
s((g2
g1
g2
I8
tp1614
g8
tp1615
I0
s((g2
g10
g6
I10
tp1616
g8
tp1617
I0
s((g6
g6
g1
I8
tp1618
g4
tp1619
I0
s((g10
g10
g10
I8
tp1620
g17
tp1621
F0.0
s((g2
g1
g10
I5
tp1622
g36
tp1623
I0
s((g2
g1
g6
I11
tp1624
g4
tp1625
I0
s((g1
g2
g10
I11
tp1626
g8
tp1627
I0
s((g10
g10
g2
I6
tp1628
g36
tp1629
F-0.9053477166666669
s((g6
g2
g6
I11
tp1630
g4
tp1631
I0
s((g2
g2
g2
I5
tp1632
g36
tp1633
F-3.2268641945000005
s((g2
g6
g1
I2
tp1634
g17
tp1635
I0
s((g6
g1
g6
I2
tp1636
g8
tp1637
I0
s((g2
g1
g1
I8
tp1638
g8
tp1639
I0
s((g1
g1
g10
I11
tp1640
g14
tp1641
I0
s((g6
g2
g10
I8
tp1642
g14
tp1643
F3328.2361978536064
s((g1
g10
g6
I5
tp1644
g17
tp1645
I0
s((g1
g6
g10
I5
tp1646
g36
tp1647
I0
s((g1
g2
g1
I5
tp1648
g36
tp1649
I0
s((g6
g10
g10
I2
tp1650
g8
tp1651
I0
s((g10
g10
g2
I2
tp1652
g14
tp1653
F7346.080819211697
s((g6
g1
g2
I9
tp1654
g8
tp1655
I0
s((g1
g10
g6
I4
tp1656
g14
tp1657
I0
s((g2
g1
g10
I9
tp1658
g4
tp1659
I0
s((g6
g6
g1
I11
tp1660
g36
tp1661
I0
s((g10
g1
g10
I8
tp1662
g36
tp1663
I0
s((g10
g10
g6
I7
tp1664
g4
tp1665
I0
s((g1
g6
g6
I1
tp1666
g8
tp1667
I0
s((g10
g6
g2
I6
tp1668
g14
tp1669
F1294.2257676751035
s((g1
g2
g1
I7
tp1670
g4
tp1671
I0
s((g1
g1
g6
I4
tp1672
g36
tp1673
I0
s((g6
g6
g10
I1
tp1674
g14
tp1675
I0
s((g10
g1
g2
I1
tp1676
g4
tp1677
I0
s((g2
g10
g1
I1
tp1678
g36
tp1679
I0
s((g6
g10
g10
I4
tp1680
g17
tp1681
F0.0
s((g1
g10
g10
I4
tp1682
g36
tp1683
I0
s((g6
g2
g1
I10
tp1684
g14
tp1685
I0
s((g10
g6
g2
I8
tp1686
g36
tp1687
I0
s((g6
g1
g2
I8
tp1688
g17
tp1689
I0
s((g10
g1
g10
I11
tp1690
g36
tp1691
I0
s((g6
g1
g1
I3
tp1692
g36
tp1693
I0
s((g2
g1
g1
I10
tp1694
g8
tp1695
I0
s((g10
g2
g6
I2
tp1696
g17
tp1697
I0
s((g2
g10
g2
I10
tp1698
g36
tp1699
F1922.85
s((g6
g2
g10
I2
tp1700
g8
tp1701
F-0.5
s((g1
g2
g10
I3
tp1702
g17
tp1703
I0
s((g6
g1
g2
I7
tp1704
g8
tp1705
I0
s((g1
g10
g10
I8
tp1706
g14
tp1707
I0
s((g1
g10
g6
I9
tp1708
g36
tp1709
I0
s((g2
g1
g2
I10
tp1710
g14
tp1711
I0
s((g6
g10
g1
I11
tp1712
g8
tp1713
I0
s((g6
g6
g2
I1
tp1714
g14
tp1715
I0
s((g2
g10
g1
I11
tp1716
g14
tp1717
I0
s((g10
g10
g1
I10
tp1718
g4
tp1719
I0
s((g1
g2
g1
I10
tp1720
g17
tp1721
I0
s((g10
g2
g10
I9
tp1722
g17
tp1723
F-0.5
s((g10
g2
g2
I6
tp1724
g14
tp1725
F11720.395001914312
s((g2
g6
g10
I8
tp1726
g4
tp1727
F18.686195
s((g2
g10
g1
I9
tp1728
g8
tp1729
I0
s((g6
g6
g2
I11
tp1730
g8
tp1731
I0
s((g2
g10
g2
I2
tp1732
g4
tp1733
F0.5629298051993595
s((g10
g2
g6
I11
tp1734
g14
tp1735
I0
s((g1
g10
g10
I5
tp1736
g14
tp1737
I0
s((g6
g6
g10
I10
tp1738
g8
tp1739
I0
s((g1
g6
g1
I1
tp1740
g17
tp1741
I0
s((g2
g2
g6
I9
tp1742
g8
tp1743
F176.2065
s((g10
g10
g2
I3
tp1744
g36
tp1745
F-0.16666666666666674
s((g6
g1
g1
I9
tp1746
g17
tp1747
I0
s((g2
g1
g1
I5
tp1748
g17
tp1749
I0
s((g6
g1
g6
I10
tp1750
g36
tp1751
I0
s((g2
g10
g6
I9
tp1752
g8
tp1753
I0
s((g6
g6
g1
I3
tp1754
g36
tp1755
I0
s((g1
g10
g1
I10
tp1756
g14
tp1757
I0
s((g2
g6
g6
I3
tp1758
g4
tp1759
F0.0
s((g6
g10
g2
I8
tp1760
g17
tp1761
I0
s((g10
g6
g6
I2
tp1762
g8
tp1763
I0
s((g1
g10
g10
I3
tp1764
g14
tp1765
I0
s((g2
g1
g1
I5
tp1766
g14
tp1767
I0
s((g6
g1
g2
I10
tp1768
g14
tp1769
I0
s((g6
g1
g10
I7
tp1770
g14
tp1771
I0
s((g1
g2
g6
I5
tp1772
g8
tp1773
I0
s((g1
g10
g2
I8
tp1774
g36
tp1775
I0
s((g6
g2
g6
I9
tp1776
g4
tp1777
I0
s((g10
g2
g10
I8
tp1778
g4
tp1779
F-0.5
s((g1
g10
g10
I5
tp1780
g17
tp1781
I0
s((g2
g6
g10
I4
tp1782
g8
tp1783
I0
s((g10
g2
g1
I1
tp1784
g14
tp1785
I0
s((g1
g10
g10
I1
tp1786
g8
tp1787
I0
s((g10
g1
g2
I7
tp1788
g14
tp1789
I0
s((g2
g6
g2
I5
tp1790
g4
tp1791
F-0.21124500000000002
s((g10
g1
g10
I11
tp1792
g14
tp1793
I0
s((g10
g1
g2
I4
tp1794
g14
tp1795
I0
s((g10
g1
g10
I2
tp1796
g36
tp1797
I0
s((g1
g2
g1
I10
tp1798
g14
tp1799
I0
s((g1
g2
g10
I5
tp1800
g17
tp1801
I0
s((g10
g10
g1
I4
tp1802
g36
tp1803
I0
s((g6
g6
g6
I2
tp1804
g14
tp1805
F255.87506067954797
s((g10
g2
g10
I11
tp1806
g17
tp1807
I0
s((g10
g1
g1
I7
tp1808
g17
tp1809
I0
s((g2
g10
g6
I5
tp1810
g17
tp1811
F0.0
s((g2
g10
g6
I6
tp1812
g17
tp1813
I0
s((g6
g1
g1
I10
tp1814
g4
tp1815
I0
s((g6
g6
g1
I2
tp1816
g8
tp1817
I0
s((g6
g6
g1
I10
tp1818
g4
tp1819
I0
s((g1
g1
g10
I10
tp1820
g14
tp1821
I0
s((g10
g10
g10
I10
tp1822
g4
tp1823
F1101.0
s((g10
g6
g2
I1
tp1824
g36
tp1825
I0
s((g10
g2
g2
I10
tp1826
g8
tp1827
F4506.5195
s((g10
g6
g6
I9
tp1828
g14
tp1829
I0
s((g6
g10
g1
I4
tp1830
g4
tp1831
I0
s((g6
g10
g6
I11
tp1832
g8
tp1833
I0
s((g1
g1
g6
I9
tp1834
g4
tp1835
I0
s((g1
g2
g1
I8
tp1836
g14
tp1837
I0
s((g1
g6
g1
I11
tp1838
g17
tp1839
I0
s((g6
g2
g10
I4
tp1840
g36
tp1841
F-0.5
s((g10
g2
g1
I6
tp1842
g36
tp1843
I0
s((g1
g10
g6
I4
tp1844
g17
tp1845
I0
s((g10
g6
g10
I3
tp1846
g17
tp1847
I0
s((g6
g2
g2
I10
tp1848
g17
tp1849
F1900.95
s((g6
g10
g10
I1
tp1850
g4
tp1851
I0
s((g2
g2
g1
I11
tp1852
g36
tp1853
I0
s((g6
g10
g10
I3
tp1854
g4
tp1855
I0
s((g1
g2
g2
I5
tp1856
g17
tp1857
I0
s((g6
g10
g1
I11
tp1858
g17
tp1859
I0
s((g6
g1
g6
I1
tp1860
g36
tp1861
I0
s((g6
g6
g10
I5
tp1862
g36
tp1863
I0
s((g2
g6
g6
I7
tp1864
g36
tp1865
F0.0
s((g10
g10
g1
I5
tp1866
g14
tp1867
I0
s((g10
g2
g2
I5
tp1868
g4
tp1869
F-2.2561988077
s((g10
g2
g1
I2
tp1870
g8
tp1871
I0
s((g10
g6
g2
I6
tp1872
g36
tp1873
I0
s((g10
g2
g2
I9
tp1874
g14
tp1875
F12844.097710672446
s((g6
g10
g1
I3
tp1876
g17
tp1877
I0
s((g2
g2
g10
I8
tp1878
g8
tp1879
F80.48243830455002
s((g6
g10
g2
I5
tp1880
g8
tp1881
I0
s((g1
g1
g2
I7
tp1882
g17
tp1883
I0
s((g2
g10
g1
I8
tp1884
g36
tp1885
I0
s((g6
g2
g1
I9
tp1886
g8
tp1887
I0
s((g10
g10
g6
I6
tp1888
g8
tp1889
I0
s((g10
g6
g6
I7
tp1890
g36
tp1891
I0
s((g6
g2
g1
I10
tp1892
g4
tp1893
I0
s((g10
g6
g1
I4
tp1894
g8
tp1895
I0
s((g10
g10
g6
I10
tp1896
g36
tp1897
I0
s((g2
g6
g6
I2
tp1898
g8
tp1899
F0.116595
s((g1
g10
g10
I8
tp1900
g36
tp1901
I0
s((g2
g6
g1
I1
tp1902
g36
tp1903
I0
s((g1
g6
g10
I8
tp1904
g17
tp1905
I0
s((g1
g1
g2
I8
tp1906
g4
tp1907
I0
s((g10
g10
g2
I11
tp1908
g14
tp1909
I0
s((g2
g10
g2
I10
tp1910
g17
tp1911
F1001.5
s((g10
g1
g1
I6
tp1912
g8
tp1913
I0
s((g10
g2
g1
I4
tp1914
g4
tp1915
I0
s((g10
g6
g10
I2
tp1916
g17
tp1917
I0
s((g10
g10
g6
I5
tp1918
g17
tp1919
I0
s((g2
g2
g2
I5
tp1920
g17
tp1921
F-4.488042534517137
s((g1
g10
g10
I10
tp1922
g14
tp1923
I0
s((g2
g10
g6
I11
tp1924
g14
tp1925
I0
s((g10
g10
g6
I4
tp1926
g17
tp1927
F0.0
s((g6
g10
g1
I11
tp1928
g36
tp1929
I0
s((g2
g1
g10
I10
tp1930
g17
tp1931
I0
s((g2
g2
g1
I2
tp1932
g17
tp1933
I0
s((g2
g6
g10
I6
tp1934
g8
tp1935
F-1.0495
s((g10
g10
g2
I1
tp1936
g14
tp1937
I0
s((g1
g6
g1
I9
tp1938
g8
tp1939
I0
s((g2
g10
g6
I5
tp1940
g8
tp1941
I0
s((g2
g2
g1
I4
tp1942
g17
tp1943
I0
s((g2
g10
g6
I8
tp1944
g14
tp1945
F3266.9451574937348
s((g6
g6
g1
I3
tp1946
g17
tp1947
I0
s((g6
g2
g6
I8
tp1948
g8
tp1949
I0
s((g1
g10
g2
I7
tp1950
g8
tp1951
I0
s((g10
g10
g6
I7
tp1952
g8
tp1953
I0
s((g6
g1
g10
I8
tp1954
g8
tp1955
I0
s((g2
g6
g1
I9
tp1956
g8
tp1957
I0
s((g2
g2
g10
I5
tp1958
g14
tp1959
F8941.497817831252
s((g2
g10
g10
I4
tp1960
g17
tp1961
F0.09206263949999999
s((g2
g2
g10
I8
tp1962
g4
tp1963
F82.255504105
s((g2
g1
g2
I3
tp1964
g8
tp1965
I0
s((g6
g1
g2
I10
tp1966
g4
tp1967
I0
s((g1
g6
g6
I7
tp1968
g36
tp1969
I0
s((g10
g10
g6
I11
tp1970
g14
tp1971
I0
s((g6
g1
g10
I7
tp1972
g4
tp1973
I0
s((g6
g1
g10
I5
tp1974
g4
tp1975
I0
s((g10
g2
g1
I5
tp1976
g36
tp1977
I0
s((g10
g6
g6
I2
tp1978
g36
tp1979
I0
s((g1
g1
g1
I11
tp1980
g4
tp1981
I0
s((g2
g2
g6
I4
tp1982
g4
tp1983
F-0.8870873765
s((g6
g1
g2
I3
tp1984
g8
tp1985
I0
s((g1
g6
g10
I4
tp1986
g14
tp1987
I0
s((g10
g6
g6
I6
tp1988
g8
tp1989
I0
s((g6
g6
g1
I5
tp1990
g4
tp1991
I0
s((g2
g6
g1
I6
tp1992
g36
tp1993
I0
s((g2
g2
g6
I7
tp1994
g36
tp1995
F-0.5
s((g10
g1
g6
I11
tp1996
g14
tp1997
I0
s((g6
g1
g6
I3
tp1998
g17
tp1999
I0
s((g10
g10
g2
I3
tp2000
g8
tp2001
F-0.42661666666666687
s((g6
g10
g1
I8
tp2002
g8
tp2003
I0
s((g2
g10
g6
I4
tp2004
g36
tp2005
I0
s((g6
g10
g2
I10
tp2006
g36
tp2007
F800.5
s((g1
g6
g1
I5
tp2008
g14
tp2009
I0
s((g10
g1
g6
I5
tp2010
g36
tp2011
I0
s((g6
g6
g2
I1
tp2012
g4
tp2013
I0
s((g6
g1
g10
I4
tp2014
g17
tp2015
I0
s((g1
g1
g1
I10
tp2016
g17
tp2017
I0
s((g1
g10
g2
I9
tp2018
g4
tp2019
I0
s((g1
g1
g1
I9
tp2020
g17
tp2021
I0
s((g10
g10
g10
I9
tp2022
g14
tp2023
F6352.197400518928
s((g10
g2
g1
I2
tp2024
g14
tp2025
I0
s((g10
g10
g6
I1
tp2026
g8
tp2027
I0
s((g6
g6
g10
I9
tp2028
g17
tp2029
F89.91666666666669
s((g1
g10
g10
I2
tp2030
g4
tp2031
I0
s((g6
g6
g2
I7
tp2032
g36
tp2033
F0.5
s((g1
g1
g6
I6
tp2034
g4
tp2035
I0
s((g6
g10
g6
I4
tp2036
g8
tp2037
I0
s((g6
g10
g1
I8
tp2038
g17
tp2039
I0
s((g10
g10
g6
I8
tp2040
g36
tp2041
I0
s((g10
g6
g1
I3
tp2042
g8
tp2043
I0
s((g2
g2
g6
I11
tp2044
g8
tp2045
I0
s((g10
g2
g6
I11
tp2046
g4
tp2047
I0
s((g10
g2
g10
I11
tp2048
g8
tp2049
I0
s((g1
g2
g6
I3
tp2050
g8
tp2051
I0
s((g2
g1
g6
I4
tp2052
g8
tp2053
I0
s((g6
g6
g1
I4
tp2054
g14
tp2055
I0
s((g2
g6
g1
I11
tp2056
g17
tp2057
I0
s((g10
g6
g6
I8
tp2058
g8
tp2059
I0
s((g10
g1
g6
I1
tp2060
g8
tp2061
I0
s((g2
g6
g1
I8
tp2062
g17
tp2063
I0
s((g1
g1
g2
I10
tp2064
g4
tp2065
I0
s((g6
g2
g6
I7
tp2066
g8
tp2067
I0
s((g2
g1
g1
I3
tp2068
g14
tp2069
I0
s((g6
g10
g1
I6
tp2070
g8
tp2071
I0
s((g10
g1
g1
I8
tp2072
g4
tp2073
I0
s((g6
g2
g2
I11
tp2074
g14
tp2075
I0
s((g1
g6
g1
I8
tp2076
g36
tp2077
I0
s((g2
g1
g2
I3
tp2078
g4
tp2079
I0
s((g10
g6
g1
I7
tp2080
g36
tp2081
I0
s((g6
g2
g1
I7
tp2082
g36
tp2083
I0
s((g1
g6
g6
I4
tp2084
g17
tp2085
I0
s((g2
g1
g1
I9
tp2086
g8
tp2087
I0
s((g1
g6
g6
I6
tp2088
g17
tp2089
I0
s((g2
g1
g10
I3
tp2090
g4
tp2091
I0
s((g1
g6
g6
I5
tp2092
g17
tp2093
I0
s((g2
g10
g1
I6
tp2094
g36
tp2095
I0
s((g6
g1
g10
I3
tp2096
g14
tp2097
I0
s((g10
g2
g6
I7
tp2098
g17
tp2099
I0
s((g1
g1
g1
I3
tp2100
g4
tp2101
I0
s((g10
g1
g6
I7
tp2102
g17
tp2103
I0
s((g10
g1
g1
I9
tp2104
g17
tp2105
I0
s((g10
g2
g2
I9
tp2106
g4
tp2107
F1267.970386945
s((g6
g2
g1
I5
tp2108
g4
tp2109
I0
s((g10
g2
g6
I4
tp2110
g17
tp2111
F0.5
s((g6
g2
g6
I10
tp2112
g17
tp2113
I0
s((g6
g6
g1
I6
tp2114
g4
tp2115
I0
s((g6
g1
g1
I1
tp2116
g4
tp2117
I0
s((g6
g2
g6
I3
tp2118
g17
tp2119
I0
s((g6
g10
g10
I5
tp2120
g36
tp2121
I0
s((g6
g6
g6
I3
tp2122
g17
tp2123
I0
s((g10
g6
g1
I2
tp2124
g14
tp2125
I0
s((g2
g1
g10
I5
tp2126
g8
tp2127
I0
s((g6
g10
g10
I5
tp2128
g17
tp2129
I0
s((g10
g6
g6
I1
tp2130
g17
tp2131
I0
s((g2
g6
g6
I3
tp2132
g8
tp2133
I0
s((g6
g6
g1
I6
tp2134
g8
tp2135
I0
s((g2
g2
g10
I5
tp2136
g8
tp2137
F-2.9451470500000005
s((g1
g2
g1
I3
tp2138
g8
tp2139
I0
s((g6
g2
g6
I6
tp2140
g4
tp2141
I0
s((g2
g6
g2
I6
tp2142
g8
tp2143
F0.0
s((g1
g2
g1
I1
tp2144
g14
tp2145
I0
s((g6
g6
g10
I10
tp2146
g17
tp2147
I0
s((g10
g1
g2
I8
tp2148
g4
tp2149
I0
s((g2
g2
g10
I6
tp2150
g17
tp2151
F-2.73668945
s((g1
g6
g1
I7
tp2152
g8
tp2153
I0
s((g2
g10
g1
I8
tp2154
g17
tp2155
I0
s((g10
g6
g2
I9
tp2156
g8
tp2157
F0.5
s((g2
g10
g2
I6
tp2158
g14
tp2159
F12537.440838902887
s((g10
g6
g1
I7
tp2160
g8
tp2161
I0
s((g2
g10
g2
I5
tp2162
g14
tp2163
F11950.667976732782
s((g6
g10
g10
I10
tp2164
g14
tp2165
F801.0
s((g2
g10
g1
I4
tp2166
g17
tp2167
I0
s((g2
g1
g6
I10
tp2168
g8
tp2169
I0
s((g10
g10
g10
I7
tp2170
g36
tp2171
I0
s((g6
g1
g6
I11
tp2172
g36
tp2173
I0
s((g2
g6
g10
I7
tp2174
g8
tp2175
I0
s((g6
g2
g1
I9
tp2176
g17
tp2177
I0
s((g6
g10
g10
I8
tp2178
g4
tp2179
I0
s((g6
g1
g2
I7
tp2180
g14
tp2181
I0
s((g6
g6
g10
I2
tp2182
g36
tp2183
I0
s((g10
g2
g2
I10
tp2184
g14
tp2185
F12907.676998776356
s((g10
g10
g2
I3
tp2186
g14
tp2187
F9679.76347488625
s((g10
g1
g2
I1
tp2188
g36
tp2189
I0
s((g10
g2
g6
I3
tp2190
g36
tp2191
I0
s((g1
g6
g1
I5
tp2192
g8
tp2193
I0
s((g6
g1
g1
I1
tp2194
g17
tp2195
I0
s((g6
g1
g2
I5
tp2196
g4
tp2197
I0
s((g2
g10
g6
I4
tp2198
g4
tp2199
I0
s((g2
g6
g10
I7
tp2200
g14
tp2201
F1171.8079780609817
s((g10
g2
g6
I5
tp2202
g17
tp2203
I0
s((g1
g1
g1
I7
tp2204
g8
tp2205
I0
s((g10
g2
g10
I11
tp2206
g14
tp2207
I0
s((g6
g2
g2
I6
tp2208
g17
tp2209
F-2.0827644105385508
s((g2
g10
g2
I7
tp2210
g14
tp2211
F12741.736036516046
s((g1
g1
g2
I5
tp2212
g17
tp2213
I0
s((g10
g10
g6
I1
tp2214
g14
tp2215
I0
s((g2
g1
g6
I5
tp2216
g8
tp2217
I0
s((g10
g2
g6
I10
tp2218
g17
tp2219
I0
s((g6
g2
g10
I1
tp2220
g17
tp2221
I0
s((g6
g10
g10
I11
tp2222
g36
tp2223
I0
s((g1
g10
g2
I1
tp2224
g8
tp2225
I0
s((g1
g1
g2
I9
tp2226
g36
tp2227
I0
s((g10
g10
g1
I10
tp2228
g36
tp2229
I0
s((g1
g10
g1
I10
tp2230
g36
tp2231
I0
s((g1
g2
g2
I10
tp2232
g36
tp2233
I0
s((g10
g2
g1
I4
tp2234
g8
tp2235
I0
s((g10
g1
g2
I3
tp2236
g17
tp2237
I0
s((g2
g10
g2
I2
tp2238
g36
tp2239
F1.4013180000000003
s((g1
g1
g10
I3
tp2240
g4
tp2241
I0
s((g1
g2
g1
I2
tp2242
g17
tp2243
I0
s((g10
g10
g6
I3
tp2244
g14
tp2245
I0
s((g6
g2
g6
I8
tp2246
g17
tp2247
I0
s((g2
g6
g2
I3
tp2248
g8
tp2249
F-0.19845500000000005
s((g1
g6
g2
I7
tp2250
g36
tp2251
I0
s((g1
g1
g1
I5
tp2252
g17
tp2253
I0
s((g2
g6
g10
I7
tp2254
g17
tp2255
I0
s((g1
g10
g6
I11
tp2256
g17
tp2257
I0
s((g1
g10
g10
I1
tp2258
g14
tp2259
I0
s((g1
g2
g6
I5
tp2260
g36
tp2261
I0
s((g1
g2
g1
I11
tp2262
g17
tp2263
I0
s((g6
g6
g2
I7
tp2264
g14
tp2265
F6075.114500131916
s((g10
g1
g1
I10
tp2266
g14
tp2267
I0
s((g10
g1
g10
I2
tp2268
g17
tp2269
I0
s((g2
g6
g6
I10
tp2270
g14
tp2271
F5095.353590000001
s((g10
g2
g6
I4
tp2272
g4
tp2273
F0.6153982223000001
s((g2
g10
g2
I8
tp2274
g36
tp2275
F25.74950665500001
s((g2
g1
g10
I1
tp2276
g4
tp2277
I0
s((g1
g10
g2
I5
tp2278
g4
tp2279
I0
s((g1
g10
g2
I7
tp2280
g4
tp2281
I0
s((g1
g10
g10
I6
tp2282
g8
tp2283
I0
s((g2
g10
g6
I9
tp2284
g4
tp2285
I0
s((g2
g10
g2
I4
tp2286
g4
tp2287
F2.3096498367569778
s((g10
g10
g10
I5
tp2288
g14
tp2289
F2878.5423232283647
s((g1
g6
g10
I7
tp2290
g17
tp2291
I0
s((g10
g10
g10
I2
tp2292
g17
tp2293
I0
s((g10
g1
g6
I2
tp2294
g14
tp2295
I0
s((g6
g10
g10
I9
tp2296
g4
tp2297
I0
s((g6
g6
g6
I7
tp2298
g36
tp2299
I0
s((g1
g10
g1
I8
tp2300
g4
tp2301
I0
s((g6
g1
g6
I3
tp2302
g4
tp2303
I0
s((g1
g1
g2
I5
tp2304
g4
tp2305
I0
s((g2
g10
g10
I10
tp2306
g14
tp2307
F8491.133766256527
s((g10
g10
g6
I10
tp2308
g4
tp2309
I0
s((g6
g6
g10
I10
tp2310
g36
tp2311
I0
s((g10
g10
g2
I5
tp2312
g4
tp2313
F-0.8090528454215669
s((g1
g10
g10
I1
tp2314
g17
tp2315
I0
s((g1
g6
g10
I2
tp2316
g17
tp2317
I0
s((g1
g10
g10
I6
tp2318
g36
tp2319
I0
s((g6
g1
g2
I3
tp2320
g4
tp2321
I0
s((g2
g10
g6
I3
tp2322
g36
tp2323
I0
s((g6
g1
g10
I3
tp2324
g36
tp2325
I0
s((g1
g2
g1
I9
tp2326
g36
tp2327
I0
s((g1
g6
g1
I10
tp2328
g4
tp2329
I0
s((g2
g1
g1
I11
tp2330
g36
tp2331
I0
s((g6
g6
g10
I8
tp2332
g4
tp2333
I0
s((g6
g10
g2
I4
tp2334
g4
tp2335
I0
s((g10
g2
g1
I7
tp2336
g17
tp2337
I0
s((g10
g6
g2
I1
tp2338
g17
tp2339
I0
s((g1
g6
g10
I3
tp2340
g4
tp2341
I0
s((g10
g1
g2
I8
tp2342
g36
tp2343
I0
s((g2
g6
g2
I11
tp2344
g36
tp2345
I0
s((g6
g2
g10
I3
tp2346
g36
tp2347
F-0.5
s((g6
g2
g1
I5
tp2348
g14
tp2349
I0
s((g10
g1
g1
I5
tp2350
g14
tp2351
I0
s((g1
g2
g2
I11
tp2352
g14
tp2353
I0
s((g10
g2
g2
I8
tp2354
g36
tp2355
F2.7530000000000006
s((g10
g10
g2
I8
tp2356
g8
tp2357
I0
s((g2
g10
g10
I3
tp2358
g14
tp2359
F2347.0504775484487
s((g1
g6
g6
I9
tp2360
g36
tp2361
I0
s((g10
g2
g1
I11
tp2362
g4
tp2363
I0
s((g10
g2
g1
I5
tp2364
g4
tp2365
I0
s((g1
g6
g10
I4
tp2366
g8
tp2367
I0
s((g10
g10
g1
I3
tp2368
g14
tp2369
I0
s((g10
g2
g6
I8
tp2370
g8
tp2371
I0
s((g6
g6
g2
I4
tp2372
g8
tp2373
F0.74319655
s((g10
g10
g6
I2
tp2374
g8
tp2375
F-0.05503166666666667
s((g6
g2
g2
I4
tp2376
g8
tp2377
F-1.0586704999999998
s((g1
g1
g1
I2
tp2378
g36
tp2379
I0
s((g6
g10
g1
I9
tp2380
g36
tp2381
I0
s((g2
g10
g6
I5
tp2382
g14
tp2383
F2255.9269579278152
s((g6
g1
g10
I5
tp2384
g36
tp2385
I0
s((g1
g6
g1
I6
tp2386
g8
tp2387
I0
s((g10
g2
g1
I11
tp2388
g17
tp2389
I0
s((g2
g2
g1
I1
tp2390
g4
tp2391
I0
s((g10
g2
g1
I4
tp2392
g17
tp2393
I0
s((g2
g6
g2
I5
tp2394
g17
tp2395
F0.05
s((g10
g6
g1
I10
tp2396
g14
tp2397
I0
s((g2
g6
g6
I7
tp2398
g8
tp2399
I0
s((g10
g10
g1
I6
tp2400
g36
tp2401
I0
s((g10
g10
g1
I11
tp2402
g14
tp2403
I0
s((g10
g1
g10
I4
tp2404
g14
tp2405
I0
s((g6
g2
g2
I10
tp2406
g4
tp2407
F2280.95
s((g10
g1
g6
I4
tp2408
g17
tp2409
I0
s((g6
g10
g10
I8
tp2410
g14
tp2411
F528.7174192432784
s((g2
g10
g6
I7
tp2412
g36
tp2413
I0
s((g2
g10
g6
I1
tp2414
g8
tp2415
I0
s((g1
g10
g6
I5
tp2416
g36
tp2417
I0
s((g2
g10
g10
I7
tp2418
g36
tp2419
F0.7244
s((g2
g6
g10
I9
tp2420
g17
tp2421
I0
s((g2
g10
g1
I10
tp2422
g4
tp2423
I0
s((g6
g1
g2
I5
tp2424
g14
tp2425
I0
s((g10
g10
g2
I8
tp2426
g17
tp2427
F106.19623349872484
s((g2
g10
g1
I6
tp2428
g17
tp2429
I0
s((g2
g6
g10
I3
tp2430
g8
tp2431
F-0.4503166666666667
s((g10
g1
g2
I2
tp2432
g4
tp2433
I0
s((g2
g10
g2
I3
tp2434
g4
tp2435
F3.1757331491592486
s((g6
g10
g10
I5
tp2436
g14
tp2437
I0
s((g2
g2
g10
I6
tp2438
g4
tp2439
F0.20849232431950052
s((g1
g6
g10
I2
tp2440
g4
tp2441
I0
s((g1
g10
g1
I6
tp2442
g8
tp2443
I0
s((g1
g2
g6
I5
tp2444
g17
tp2445
I0
s((g2
g10
g2
I9
tp2446
g14
tp2447
F13208.6408035818
s((g2
g1
g10
I1
tp2448
g8
tp2449
I0
s((g2
g10
g10
I7
tp2450
g8
tp2451
F0.19875
s((g10
g10
g10
I5
tp2452
g8
tp2453
F-0.03166666666666668
s((g2
g1
g10
I2
tp2454
g14
tp2455
I0
s((g2
g2
g6
I2
tp2456
g4
tp2457
F-0.43338110845
s((g10
g1
g2
I8
tp2458
g8
tp2459
I0
s((g6
g1
g2
I11
tp2460
g17
tp2461
I0
s((g6
g6
g6
I10
tp2462
g17
tp2463
I0
s((g2
g10
g6
I8
tp2464
g8
tp2465
I0
s((g1
g10
g1
I4
tp2466
g17
tp2467
I0
s((g6
g6
g2
I3
tp2468
g4
tp2469
F0.7267706625001742
s((g6
g10
g1
I11
tp2470
g4
tp2471
I0
s((g2
g10
g2
I4
tp2472
g17
tp2473
F1.334478605
s((g2
g2
g2
I7
tp2474
g8
tp2475
F8.966180050500002
s((g1
g6
g6
I7
tp2476
g14
tp2477
I0
s((g6
g2
g10
I3
tp2478
g4
tp2479
F-0.7039524880000001
s((g1
g1
g2
I8
tp2480
g17
tp2481
I0
s((g2
g2
g2
I7
tp2482
g36
tp2483
F2.580376499570488
s((g1
g10
g2
I4
tp2484
g36
tp2485
I0
s((g2
g1
g2
I3
tp2486
g36
tp2487
I0
s((g10
g10
g10
I3
tp2488
g4
tp2489
F0.0
s((g1
g6
g1
I5
tp2490
g36
tp2491
I0
s((g1
g10
g10
I11
tp2492
g14
tp2493
I0
s((g1
g10
g10
I1
tp2494
g4
tp2495
I0
s((g2
g2
g6
I1
tp2496
g14
tp2497
I0
s((g2
g1
g2
I8
tp2498
g17
tp2499
I0
s((g2
g1
g2
I11
tp2500
g17
tp2501
I0
s((g1
g1
g10
I6
tp2502
g8
tp2503
I0
s((g10
g2
g2
I7
tp2504
g4
tp2505
F7.527607531500001
s((g10
g6
g10
I6
tp2506
g14
tp2507
F1808.9467693508118
s((g2
g1
g2
I2
tp2508
g36
tp2509
I0
s((g6
g6
g1
I7
tp2510
g36
tp2511
I0
s((g6
g10
g6
I1
tp2512
g17
tp2513
I0
s((g2
g10
g10
I9
tp2514
g8
tp2515
I0
s((g2
g10
g2
I4
tp2516
g14
tp2517
F11194.511259570929
s((g6
g10
g10
I4
tp2518
g4
tp2519
I0
s((g2
g2
g10
I3
tp2520
g8
tp2521
F-2.8599890500000003
s((g2
g6
g2
I2
tp2522
g14
tp2523
F7685.21565553212
s((g1
g6
g1
I9
tp2524
g36
tp2525
I0
s((g10
g6
g1
I5
tp2526
g36
tp2527
I0
s((g10
g6
g2
I9
tp2528
g4
tp2529
I0
s((g2
g2
g10
I4
tp2530
g36
tp2531
F-3.0095875305000006
s((g1
g1
g1
I1
tp2532
g17
tp2533
I0
s((g6
g6
g10
I11
tp2534
g14
tp2535
I0
s((g6
g10
g6
I5
tp2536
g4
tp2537
I0
s((g6
g6
g10
I6
tp2538
g4
tp2539
I0
s((g10
g10
g10
I6
tp2540
g4
tp2541
F0.0
s((g2
g2
g1
I5
tp2542
g4
tp2543
I0
s((g1
g6
g1
I8
tp2544
g14
tp2545
I0
s((g1
g10
g6
I10
tp2546
g4
tp2547
I0
s((g10
g10
g1
I10
tp2548
g8
tp2549
I0
s((g10
g10
g10
I2
tp2550
g36
tp2551
F-0.016666666666666673
s((g10
g10
g6
I5
tp2552
g36
tp2553
I0
s((g2
g10
g1
I10
tp2554
g36
tp2555
I0
s((g2
g1
g1
I6
tp2556
g36
tp2557
I0
s((g2
g1
g6
I2
tp2558
g17
tp2559
I0
s((g10
g1
g1
I5
tp2560
g36
tp2561
I0
s((g2
g1
g1
I4
tp2562
g8
tp2563
I0
s((g6
g10
g2
I8
tp2564
g4
tp2565
I0
s((g2
g6
g1
I3
tp2566
g4
tp2567
I0
s((g1
g2
g2
I1
tp2568
g36
tp2569
I0
s((g6
g2
g6
I7
tp2570
g14
tp2571
F1119.478150123915
s((g1
g1
g10
I7
tp2572
g8
tp2573
I0
s((g6
g6
g1
I11
tp2574
g14
tp2575
I0
s((g1
g1
g1
I8
tp2576
g36
tp2577
I0
s((g1
g2
g2
I11
tp2578
g4
tp2579
I0
s((g6
g1
g2
I3
tp2580
g36
tp2581
I0
s((g2
g6
g2
I5
tp2582
g14
tp2583
F10536.556691936965
s((g10
g10
g6
I5
tp2584
g8
tp2585
I0
s((g10
g2
g10
I10
tp2586
g36
tp2587
F2440.95
s((g1
g1
g1
I10
tp2588
g8
tp2589
I0
s((g1
g6
g1
I3
tp2590
g17
tp2591
I0
s((g10
g1
g6
I3
tp2592
g17
tp2593
I0
s((g10
g10
g6
I11
tp2594
g8
tp2595
I0
s((g2
g2
g2
I5
tp2596
g8
tp2597
F-4.487592332514161
s((g6
g2
g1
I7
tp2598
g8
tp2599
I0
s((g2
g6
g2
I7
tp2600
g8
tp2601
I0
s((g10
g6
g10
I8
tp2602
g36
tp2603
I0
s((g10
g2
g6
I6
tp2604
g36
tp2605
I0
s((g1
g1
g10
I9
tp2606
g14
tp2607
I0
s((g1
g6
g1
I2
tp2608
g36
tp2609
I0
s((g10
g1
g6
I5
tp2610
g8
tp2611
I0
s((g6
g2
g1
I6
tp2612
g14
tp2613
I0
s((g10
g6
g1
I7
tp2614
g4
tp2615
I0
s((g6
g1
g6
I5
tp2616
g36
tp2617
I0
s((g2
g10
g10
I7
tp2618
g14
tp2619
F7352.197631082063
s((g6
g2
g2
I7
tp2620
g8
tp2621
F-0.5964544499999997
s((g2
g6
g6
I9
tp2622
g14
tp2623
F543.1809815500002
s((g1
g2
g6
I8
tp2624
g14
tp2625
I0
s((g10
g6
g10
I2
tp2626
g14
tp2627
F73.25218401494088
s((g10
g1
g2
I2
tp2628
g17
tp2629
I0
s((g6
g10
g10
I10
tp2630
g36
tp2631
I0
s((g10
g6
g1
I3
tp2632
g36
tp2633
I0
s((g6
g2
g2
I11
tp2634
g4
tp2635
I0
s((g2
g6
g6
I5
tp2636
g8
tp2637
F0.0
s((g1
g6
g6
I1
tp2638
g17
tp2639
I0
s((g2
g6
g2
I4
tp2640
g4
tp2641
F-0.057610845000000015
s((g6
g1
g2
I8
tp2642
g4
tp2643
I0
s((g1
g10
g10
I10
tp2644
g17
tp2645
I0
s((g10
g1
g10
I6
tp2646
g14
tp2647
I0
s((g1
g10
g10
I9
tp2648
g17
tp2649
I0
s((g10
g1
g10
I1
tp2650
g4
tp2651
I0
s((g1
g10
g2
I3
tp2652
g17
tp2653
I0
s((g1
g2
g1
I8
tp2654
g8
tp2655
I0
s((g2
g2
g2
I3
tp2656
g4
tp2657
F-3.5523354245976178
s((g2
g2
g10
I3
tp2658
g17
tp2659
F-4.123994226545917
s((g10
g6
g1
I9
tp2660
g14
tp2661
I0
s((g10
g1
g2
I5
tp2662
g36
tp2663
I0
s((g10
g1
g1
I8
tp2664
g17
tp2665
I0
s((g1
g10
g1
I11
tp2666
g8
tp2667
I0
s((g1
g10
g6
I5
tp2668
g4
tp2669
I0
s((g2
g6
g10
I9
tp2670
g36
tp2671
I0
s((g1
g1
g10
I8
tp2672
g8
tp2673
I0
s((g6
g10
g10
I11
tp2674
g14
tp2675
I0
s((g10
g10
g10
I6
tp2676
g17
tp2677
F0.0
s((g6
g1
g6
I11
tp2678
g8
tp2679
I0
s((g6
g1
g1
I7
tp2680
g4
tp2681
I0
s((g2
g6
g2
I2
tp2682
g8
tp2683
F-0.1355
s((g10
g6
g1
I4
tp2684
g17
tp2685
I0
s((g2
g1
g1
I8
tp2686
g4
tp2687
I0
s((g1
g2
g1
I8
tp2688
g36
tp2689
I0
s((g1
g1
g2
I6
tp2690
g36
tp2691
I0
s((g10
g10
g1
I5
tp2692
g8
tp2693
I0
s((g1
g6
g2
I9
tp2694
g36
tp2695
I0
s((g1
g1
g1
I7
tp2696
g14
tp2697
I0
s((g1
g1
g6
I3
tp2698
g4
tp2699
I0
s((g2
g2
g10
I1
tp2700
g8
tp2701
I0
s((g1
g10
g2
I5
tp2702
g36
tp2703
I0
s((g2
g10
g2
I9
tp2704
g4
tp2705
F1053.26915
s((g10
g2
g1
I8
tp2706
g36
tp2707
I0
s((g2
g10
g6
I11
tp2708
g4
tp2709
I0
s((g2
g1
g2
I1
tp2710
g17
tp2711
I0
s((g1
g10
g6
I11
tp2712
g14
tp2713
I0
s((g2
g10
g1
I9
tp2714
g17
tp2715
I0
s((g1
g10
g10
I9
tp2716
g4
tp2717
I0
s((g10
g6
g1
I8
tp2718
g4
tp2719
I0
s((g2
g10
g6
I10
tp2720
g4
tp2721
F1001.0
s((g10
g6
g1
I6
tp2722
g4
tp2723
I0
s((g10
g6
g2
I11
tp2724
g36
tp2725
I0
s((g1
g6
g2
I10
tp2726
g4
tp2727
I0
s((g1
g2
g2
I9
tp2728
g17
tp2729
I0
s((g10
g6
g1
I1
tp2730
g14
tp2731
I0
s((g6
g1
g6
I1
tp2732
g14
tp2733
I0
s((g10
g1
g2
I9
tp2734
g8
tp2735
I0
s((g2
g1
g6
I1
tp2736
g4
tp2737
I0
s((g6
g6
g6
I11
tp2738
g4
tp2739
I0
s((g1
g1
g1
I8
tp2740
g17
tp2741
I0
s((g6
g6
g6
I5
tp2742
g4
tp2743
F-0.06000000000000001
s((g2
g1
g6
I6
tp2744
g14
tp2745
I0
s((g10
g6
g10
I8
tp2746
g4
tp2747
I0
s((g6
g2
g2
I5
tp2748
g17
tp2749
F-1.5970487445000001
s((g1
g6
g1
I11
tp2750
g36
tp2751
I0
s((g6
g10
g6
I9
tp2752
g8
tp2753
I0
s((g10
g2
g1
I7
tp2754
g8
tp2755
I0
s((g10
g6
g1
I7
tp2756
g17
tp2757
I0
s((g10
g10
g2
I5
tp2758
g8
tp2759
F-0.37142166666666676
s((g10
g10
g6
I5
tp2760
g14
tp2761
F997.6360309664483
s((g6
g6
g2
I2
tp2762
g8
tp2763
F0.9814583333333333
s((g6
g10
g6
I10
tp2764
g4
tp2765
I0
s((g6
g2
g10
I3
tp2766
g17
tp2767
F-0.55
s((g10
g2
g2
I3
tp2768
g14
tp2769
F8754.058074382841
s((g1
g2
g2
I8
tp2770
g17
tp2771
I0
s((g10
g1
g1
I10
tp2772
g8
tp2773
I0
s((g6
g6
g10
I11
tp2774
g4
tp2775
I0
s((g2
g2
g10
I7
tp2776
g17
tp2777
F3.3313997477480504
s((g1
g10
g1
I1
tp2778
g17
tp2779
I0
s((g10
g10
g6
I4
tp2780
g36
tp2781
I0
s((g10
g10
g10
I1
tp2782
g8
tp2783
I0
s((g10
g6
g1
I5
tp2784
g8
tp2785
I0
s((g2
g1
g6
I1
tp2786
g17
tp2787
I0
s((g6
g1
g2
I8
tp2788
g36
tp2789
I0
s((g1
g1
g2
I4
tp2790
g14
tp2791
I0
s((g6
g6
g6
I2
tp2792
g17
tp2793
I0
s((g2
g10
g10
I4
tp2794
g4
tp2795
I0
s((g1
g2
g2
I4
tp2796
g4
tp2797
I0
s((g10
g2
g1
I7
tp2798
g4
tp2799
I0
s((g6
g10
g2
I7
tp2800
g8
tp2801
I0
s((g10
g10
g2
I1
tp2802
g4
tp2803
I0
s((g6
g1
g1
I4
tp2804
g4
tp2805
I0
s((g10
g10
g10
I1
tp2806
g4
tp2807
I0
s((g6
g10
g6
I3
tp2808
g14
tp2809
F446.6705873866273
s((g1
g1
g10
I8
tp2810
g14
tp2811
I0
s((g1
g1
g1
I11
tp2812
g17
tp2813
I0
s((g6
g2
g1
I1
tp2814
g36
tp2815
I0
s((g1
g1
g1
I2
tp2816
g17
tp2817
I0
s((g6
g6
g6
I1
tp2818
g17
tp2819
I0
s((g6
g10
g6
I11
tp2820
g17
tp2821
I0
s((g6
g2
g6
I10
tp2822
g8
tp2823
F800.5
s((g10
g1
g2
I6
tp2824
g14
tp2825
I0
s((g6
g1
g10
I7
tp2826
g17
tp2827
I0
s((g1
g2
g1
I5
tp2828
g17
tp2829
I0
s((g2
g1
g6
I1
tp2830
g8
tp2831
I0
s((g6
g2
g10
I5
tp2832
g17
tp2833
I0
s((g1
g6
g2
I9
tp2834
g4
tp2835
I0
s((g6
g2
g1
I5
tp2836
g8
tp2837
I0
s((g2
g1
g1
I10
tp2838
g14
tp2839
I0
s((g2
g1
g6
I7
tp2840
g17
tp2841
I0
s((g2
g10
g6
I2
tp2842
g14
tp2843
F1425.4742756945654
s((g2
g10
g10
I2
tp2844
g8
tp2845
F-0.2522807246455001
s((g2
g2
g6
I5
tp2846
g8
tp2847
F-0.5
s((g10
g2
g6
I6
tp2848
g8
tp2849
I0
s((g2
g6
g1
I6
tp2850
g8
tp2851
I0
s((g6
g10
g1
I5
tp2852
g14
tp2853
I0
s((g10
g2
g6
I6
tp2854
g14
tp2855
F3.8547229218169012
s((g2
g6
g1
I8
tp2856
g8
tp2857
I0
s((g2
g10
g10
I5
tp2858
g14
tp2859
F4656.437202882377
s((g2
g2
g1
I6
tp2860
g36
tp2861
I0
s((g10
g10
g2
I10
tp2862
g14
tp2863
F12321.628384789847
s((g6
g2
g10
I9
tp2864
g17
tp2865
F268.425
s((g2
g2
g6
I6
tp2866
g4
tp2867
F-1.561639881
s((g10
g2
g10
I7
tp2868
g36
tp2869
F-0.22469999999999996
s((g2
g1
g1
I9
tp2870
g36
tp2871
I0
s((g1
g1
g1
I1
tp2872
g4
tp2873
I0
s((g2
g1
g2
I10
tp2874
g17
tp2875
I0
s((g6
g1
g2
I1
tp2876
g36
tp2877
I0
s((g6
g6
g6
I4
tp2878
g17
tp2879
I0
s((g10
g6
g2
I11
tp2880
g4
tp2881
I0
s((g6
g6
g6
I7
tp2882
g17
tp2883
I0
s((g10
g1
g6
I8
tp2884
g4
tp2885
I0
s((g10
g1
g6
I6
tp2886
g4
tp2887
I0
s((g1
g2
g6
I3
tp2888
g14
tp2889
I0
s((g6
g10
g2
I10
tp2890
g14
tp2891
F5150.990515500001
s((g6
g6
g1
I10
tp2892
g36
tp2893
I0
s((g2
g1
g10
I10
tp2894
g14
tp2895
I0
s((g10
g1
g6
I11
tp2896
g36
tp2897
I0
s((g2
g1
g10
I7
tp2898
g14
tp2899
I0
s((g10
g6
g1
I11
tp2900
g8
tp2901
I0
s((g6
g10
g1
I10
tp2902
g4
tp2903
I0
s((g1
g1
g2
I6
tp2904
g8
tp2905
I0
s((g6
g1
g6
I5
tp2906
g8
tp2907
I0
s((g10
g6
g6
I9
tp2908
g4
tp2909
I0
s((g6
g6
g10
I8
tp2910
g17
tp2911
I0
s((g6
g6
g2
I4
tp2912
g17
tp2913
I0
s((g6
g2
g10
I3
tp2914
g8
tp2915
F-0.5503166666666667
s((g2
g2
g1
I3
tp2916
g17
tp2917
I0
s((g10
g10
g10
I9
tp2918
g4
tp2919
F0.0
s((g1
g6
g6
I9
tp2920
g8
tp2921
I0
s((g2
g1
g6
I3
tp2922
g36
tp2923
I0
s((g1
g2
g6
I11
tp2924
g14
tp2925
I0
s((g6
g10
g2
I2
tp2926
g14
tp2927
F5234.163749334822
s((g10
g2
g1
I1
tp2928
g8
tp2929
I0
s((g6
g2
g2
I8
tp2930
g4
tp2931
F10.555000000000001
s((g10
g1
g2
I10
tp2932
g4
tp2933
I0
s((g2
g10
g10
I10
tp2934
g4
tp2935
I0
s((g10
g10
g6
I6
tp2936
g4
tp2937
I0
s((g2
g2
g1
I3
tp2938
g8
tp2939
I0
s((g6
g1
g10
I4
tp2940
g14
tp2941
I0
s((g2
g6
g1
I7
tp2942
g17
tp2943
I0
s((g2
g6
g6
I5
tp2944
g4
tp2945
I0
s((g10
g10
g2
I10
tp2946
g4
tp2947
F3869.3025833333336
s((g6
g1
g1
I10
tp2948
g17
tp2949
I0
s((g6
g1
g1
I5
tp2950
g17
tp2951
I0
s((g6
g1
g1
I11
tp2952
g14
tp2953
I0
s((g6
g1
g10
I5
tp2954
g8
tp2955
I0
s((g2
g2
g10
I3
tp2956
g4
tp2957
F-2.263227342197
s((g6
g10
g2
I8
tp2958
g36
tp2959
I0
s((g1
g6
g1
I6
tp2960
g36
tp2961
I0
s((g1
g2
g10
I5
tp2962
g4
tp2963
I0
s((g2
g6
g1
I10
tp2964
g17
tp2965
I0
s((g10
g6
g2
I6
tp2966
g4
tp2967
I0
s((g6
g6
g6
I2
tp2968
g4
tp2969
F0.0
s((g1
g1
g10
I2
tp2970
g14
tp2971
I0
s((g1
g6
g6
I10
tp2972
g17
tp2973
I0
s((g1
g1
g6
I9
tp2974
g17
tp2975
I0
s((g2
g1
g2
I4
tp2976
g4
tp2977
I0
s((g10
g10
g6
I5
tp2978
g4
tp2979
F-0.06000000000000001
s((g10
g2
g6
I7
tp2980
g4
tp2981
I0
s((g6
g10
g6
I11
tp2982
g4
tp2983
I0
s((g1
g6
g1
I4
tp2984
g4
tp2985
I0
s((g10
g6
g6
I10
tp2986
g14
tp2987
I0
s((g1
g10
g6
I5
tp2988
g8
tp2989
I0
s((g1
g10
g6
I2
tp2990
g4
tp2991
I0
s((g2
g6
g10
I6
tp2992
g4
tp2993
I0
s((g6
g10
g10
I2
tp2994
g14
tp2995
F779.1486734512168
s((g1
g1
g2
I2
tp2996
g14
tp2997
I0
s((g6
g10
g2
I1
tp2998
g36
tp2999
I0
s((g2
g1
g10
I1
tp3000
g17
tp3001
I0
s((g2
g10
g2
I4
tp3002
g8
tp3003
F1.18108753253521
s((g10
g6
g2
I5
tp3004
g8
tp3005
I0
s((g1
g1
g10
I7
tp3006
g4
tp3007
I0
s((g1
g2
g10
I2
tp3008
g17
tp3009
I0
s((g1
g2
g1
I1
tp3010
g17
tp3011
I0
s((g10
g6
g1
I10
tp3012
g4
tp3013
I0
s((g10
g1
g1
I1
tp3014
g14
tp3015
I0
s((g10
g6
g6
I7
tp3016
g14
tp3017
I0
s((g2
g1
g1
I5
tp3018
g36
tp3019
I0
s((g6
g10
g1
I2
tp3020
g4
tp3021
I0
s((g2
g1
g1
I5
tp3022
g4
tp3023
I0
s((g6
g1
g2
I6
tp3024
g14
tp3025
I0
s((g1
g10
g10
I5
tp3026
g4
tp3027
I0
s((g10
g2
g10
I8
tp3028
g17
tp3029
F10.015000000000002
s((g6
g1
g2
I4
tp3030
g8
tp3031
I0
s((g6
g10
g6
I9
tp3032
g36
tp3033
I0
s((g6
g6
g1
I8
tp3034
g8
tp3035
I0
s((g10
g1
g10
I1
tp3036
g36
tp3037
I0
s((g2
g2
g2
I5
tp3038
g14
tp3039
F12458.662390534111
s((g10
g10
g1
I4
tp3040
g17
tp3041
I0
s((g10
g10
g6
I8
tp3042
g14
tp3043
F117.763122679
s((g10
g1
g10
I5
tp3044
g17
tp3045
I0
s((g6
g6
g6
I3
tp3046
g36
tp3047
I0
s((g1
g1
g2
I3
tp3048
g4
tp3049
I0
s((g10
g10
g1
I2
tp3050
g8
tp3051
I0
s((g1
g6
g10
I9
tp3052
g8
tp3053
I0
s((g2
g2
g1
I2
tp3054
g4
tp3055
I0
s((g2
g10
g1
I10
tp3056
g8
tp3057
I0
s((g6
g2
g10
I6
tp3058
g17
tp3059
F-0.95
s((g2
g6
g6
I1
tp3060
g4
tp3061
I0
s((g1
g1
g10
I3
tp3062
g8
tp3063
I0
s((g1
g10
g6
I10
tp3064
g36
tp3065
I0
s((g6
g10
g2
I7
tp3066
g17
tp3067
I0
s((g2
g6
g6
I10
tp3068
g4
tp3069
F1481.9
s((g10
g1
g10
I5
tp3070
g8
tp3071
I0
s((g10
g2
g2
I7
tp3072
g36
tp3073
F6.496880039899501
s((g1
g6
g6
I6
tp3074
g36
tp3075
I0
s((g1
g1
g6
I1
tp3076
g14
tp3077
F6200.395432014017
s((g6
g2
g2
I3
tp3078
g17
tp3079
F-0.45
s((g6
g1
g10
I10
tp3080
g8
tp3081
I0
s((g10
g10
g6
I1
tp3082
g36
tp3083
I0
s((g1
g10
g2
I3
tp3084
g36
tp3085
I0
s((g10
g1
g10
I3
tp3086
g17
tp3087
I0
s((g1
g10
g2
I2
tp3088
g17
tp3089
I0
s((g10
g2
g2
I2
tp3090
g4
tp3091
F-3.141098875174194
s((g2
g2
g10
I3
tp3092
g36
tp3093
F-3.9331103772519507
s((g2
g10
g1
I11
tp3094
g8
tp3095
I0
s((g2
g1
g10
I2
tp3096
g36
tp3097
I0
s((g2
g2
g6
I5
tp3098
g14
tp3099
F6588.695945452739
s((g10
g10
g1
I6
tp3100
g17
tp3101
I0
s((g2
g2
g6
I7
tp3102
g8
tp3103
F-1.0
s((g2
g6
g10
I5
tp3104
g4
tp3105
I0
s((g10
g10
g1
I5
tp3106
g17
tp3107
I0
s((g1
g1
g2
I1
tp3108
g17
tp3109
F-12.431331459431018
s((g1
g2
g2
I7
tp3110
g8
tp3111
I0
s((g6
g6
g1
I10
tp3112
g14
tp3113
I0
s((g6
g10
g2
I10
tp3114
g4
tp3115
I0
s((g6
g1
g1
I11
tp3116
g8
tp3117
I0
s((g10
g2
g10
I5
tp3118
g8
tp3119
F-0.5
s((g2
g1
g2
I2
tp3120
g4
tp3121
I0
s((g6
g1
g2
I1
tp3122
g8
tp3123
I0
s((g10
g10
g10
I8
tp3124
g4
tp3125
F189.2505349933333
s((g2
g6
g1
I5
tp3126
g4
tp3127
I0
s((g1
g6
g1
I7
tp3128
g17
tp3129
I0
s((g1
g10
g1
I5
tp3130
g8
tp3131
I0
s((g6
g2
g10
I10
tp3132
g14
tp3133
F4593.3513155
s((g2
g2
g10
I9
tp3134
g4
tp3135
F379.2610000000001
s((g1
g1
g1
I9
tp3136
g36
tp3137
I0
s((g6
g10
g1
I6
tp3138
g4
tp3139
I0
s((g1
g1
g10
I11
tp3140
g17
tp3141
I0
s((g2
g1
g6
I10
tp3142
g4
tp3143
I0
s((g1
g6
g1
I11
tp3144
g14
tp3145
I0
s((g10
g6
g1
I3
tp3146
g4
tp3147
I0
s((g10
g6
g6
I10
tp3148
g17
tp3149
I0
s((g6
g1
g1
I11
tp3150
g36
tp3151
I0
s((g10
g6
g1
I11
tp3152
g4
tp3153
I0
s((g6
g10
g2
I3
tp3154
g14
tp3155
F1980.2043520323616
s((g10
g10
g1
I2
tp3156
g14
tp3157
I0
s((g10
g10
g10
I11
tp3158
g36
tp3159
I0
s((g1
g2
g10
I10
tp3160
g4
tp3161
I0
s((g10
g1
g1
I8
tp3162
g36
tp3163
I0
s((g1
g10
g6
I1
tp3164
g36
tp3165
I0
s((g6
g6
g6
I8
tp3166
g4
tp3167
F40.21257550000001
s((g2
g10
g6
I3
tp3168
g17
tp3169
F0.0
s((g10
g6
g10
I9
tp3170
g8
tp3171
I0
s((g1
g2
g1
I9
tp3172
g17
tp3173
I0
s((g10
g10
g2
I4
tp3174
g4
tp3175
I0
s((g2
g10
g1
I6
tp3176
g4
tp3177
I0
s((g1
g1
g10
I5
tp3178
g8
tp3179
I0
s((g2
g6
g6
I10
tp3180
g8
tp3181
F1001.0
s((g2
g6
g10
I11
tp3182
g36
tp3183
I0
s((g10
g2
g2
I9
tp3184
g8
tp3185
F771.7224874450001
s((g10
g6
g10
I11
tp3186
g14
tp3187
I0
s((g2
g1
g10
I9
tp3188
g14
tp3189
I0
s((g10
g2
g10
I3
tp3190
g4
tp3191
F-0.6490136550000001
s((g6
g6
g2
I11
tp3192
g14
tp3193
I0
s((g10
g1
g10
I7
tp3194
g14
tp3195
I0
s((g10
g2
g1
I1
tp3196
g17
tp3197
I0
s((g10
g10
g2
I6
tp3198
g17
tp3199
F-0.8298359221666669
s((g6
g6
g10
I1
tp3200
g4
tp3201
I0
s((g2
g2
g1
I6
tp3202
g17
tp3203
I0
s((g1
g10
g6
I2
tp3204
g14
tp3205
I0
s((g2
g1
g6
I9
tp3206
g17
tp3207
I0
s((g1
g2
g10
I8
tp3208
g14
tp3209
I0
s((g10
g6
g6
I8
tp3210
g14
tp3211
F1175.5337466113774
s((g1
g1
g2
I9
tp3212
g17
tp3213
I0
s((g10
g1
g10
I4
tp3214
g8
tp3215
I0
s((g6
g6
g1
I1
tp3216
g36
tp3217
I0
s((g2
g2
g1
I8
tp3218
g36
tp3219
I0
s((g1
g6
g2
I2
tp3220
g36
tp3221
I0
s((g10
g10
g2
I9
tp3222
g8
tp3223
F528.2670628333333
s((g6
g10
g6
I9
tp3224
g14
tp3225
F1336.3557015006336
s((g1
g1
g10
I9
tp3226
g36
tp3227
I0
s((g10
g1
g2
I8
tp3228
g14
tp3229
I0
s((g1
g2
g6
I7
tp3230
g4
tp3231
I0
s((g1
g2
g6
I9
tp3232
g4
tp3233
I0
s((g10
g1
g1
I1
tp3234
g4
tp3235
I0
s((g6
g10
g1
I2
tp3236
g14
tp3237
I0
s((g2
g2
g10
I6
tp3238
g8
tp3239
F-2.442295
s((g6
g2
g6
I2
tp3240
g4
tp3241
F-1.0283013655000002
s((g6
g2
g10
I7
tp3242
g8
tp3243
F-0.5
s((g2
g6
g2
I9
tp3244
g17
tp3245
F787.8367147877595
s((g1
g1
g6
I7
tp3246
g36
tp3247
I0
s((g1
g1
g1
I3
tp3248
g17
tp3249
I0
s((g1
g2
g2
I3
tp3250
g14
tp3251
I0
s((g2
g2
g1
I3
tp3252
g14
tp3253
I0
s((g6
g10
g10
I8
tp3254
g36
tp3255
I0
s((g2
g6
g10
I10
tp3256
g14
tp3257
F2230.95
s((g6
g2
g10
I9
tp3258
g8
tp3259
F119.55000000000001
s((g10
g6
g6
I5
tp3260
g36
tp3261
I0
s((g6
g1
g1
I2
tp3262
g14
tp3263
I0
s((g2
g2
g1
I5
tp3264
g8
tp3265
I0
s((g6
g1
g2
I8
tp3266
g8
tp3267
I0
s((g10
g1
g6
I10
tp3268
g14
tp3269
I0
s((g1
g6
g2
I4
tp3270
g14
tp3271
I0
s((g1
g2
g2
I2
tp3272
g36
tp3273
I0
s((g2
g10
g10
I10
tp3274
g8
tp3275
I0
s((g6
g2
g2
I11
tp3276
g36
tp3277
I0
s((g2
g6
g6
I3
tp3278
g14
tp3279
F736.8113795436784
s((g6
g6
g10
I9
tp3280
g8
tp3281
I0
s((g1
g2
g6
I10
tp3282
g8
tp3283
I0
s((g2
g1
g6
I4
tp3284
g4
tp3285
I0
s((g6
g6
g6
I9
tp3286
g14
tp3287
F1052.3935374138207
s((g2
g6
g2
I6
tp3288
g4
tp3289
F0.8776861150000003
s((g6
g10
g1
I7
tp3290
g17
tp3291
I0
s((g6
g10
g6
I4
tp3292
g36
tp3293
I0
s((g2
g6
g2
I1
tp3294
g4
tp3295
I0
s((g10
g1
g2
I9
tp3296
g17
tp3297
I0
s((g6
g10
g6
I8
tp3298
g4
tp3299
I0
s((g6
g6
g10
I9
tp3300
g4
tp3301
F140.99166666666667
s((g1
g10
g2
I4
tp3302
g8
tp3303
I0
s((g6
g1
g10
I8
tp3304
g17
tp3305
I0
s((g1
g6
g10
I8
tp3306
g4
tp3307
I0
s((g10
g2
g6
I11
tp3308
g17
tp3309
I0
s((g10
g6
g10
I4
tp3310
g36
tp3311
I0
s((g10
g1
g6
I11
tp3312
g4
tp3313
I0
s((g6
g10
g1
I2
tp3314
g17
tp3315
I0
s((g10
g1
g2
I10
tp3316
g17
tp3317
I0
s((g2
g2
g6
I8
tp3318
g4
tp3319
F62.77822550000001
s((g10
g10
g2
I2
tp3320
g17
tp3321
I0
s((g10
g1
g1
I6
tp3322
g17
tp3323
I0
s((g6
g1
g6
I9
tp3324
g36
tp3325
I0
s((g2
g10
g2
I1
tp3326
g8
tp3327
I0
s((g10
g2
g6
I8
tp3328
g17
tp3329
I0
s((g10
g6
g10
I9
tp3330
g17
tp3331
F170.785
s((g1
g6
g6
I9
tp3332
g14
tp3333
I0
s((g2
g1
g1
I1
tp3334
g8
tp3335
I0
s((g10
g2
g1
I2
tp3336
g4
tp3337
I0
s((g1
g10
g1
I10
tp3338
g8
tp3339
I0
s((g2
g10
g10
I5
tp3340
g8
tp3341
F0.030000000000000006
s((g6
g10
g10
I9
tp3342
g8
tp3343
I0
s((g6
g10
g1
I1
tp3344
g8
tp3345
I0
s((g6
g1
g6
I2
tp3346
g36
tp3347
I0
s((g10
g10
g1
I8
tp3348
g4
tp3349
I0
s((g2
g2
g2
I9
tp3350
g8
tp3351
F911.7713257075386
s((g2
g1
g2
I4
tp3352
g17
tp3353
I0
s((g6
g2
g2
I10
tp3354
g36
tp3355
F1860.95
s((g2
g2
g1
I8
tp3356
g4
tp3357
I0
s((g6
g1
g10
I5
tp3358
g17
tp3359
I0
s((g2
g2
g1
I10
tp3360
g4
tp3361
I0
s((g2
g10
g10
I8
tp3362
g17
tp3363
I0
s((g1
g6
g6
I10
tp3364
g4
tp3365
I0
s((g10
g6
g10
I11
tp3366
g17
tp3367
I0
s((g2
g10
g10
I1
tp3368
g17
tp3369
I0
s((g6
g2
g6
I10
tp3370
g36
tp3371
I0
s((g10
g6
g10
I8
tp3372
g8
tp3373
F0.5
s((g2
g2
g2
I5
tp3374
g4
tp3375
F-0.7465125979426839
s((g10
g1
g10
I10
tp3376
g36
tp3377
I0
s((g10
g10
g10
I9
tp3378
g8
tp3379
F60.1
s((g10
g1
g1
I8
tp3380
g14
tp3381
I0
s((g1
g6
g2
I7
tp3382
g4
tp3383
I0
s((g2
g2
g6
I3
tp3384
g36
tp3385
F-1.85095
s((g1
g6
g10
I3
tp3386
g8
tp3387
I0
s((g6
g6
g1
I11
tp3388
g4
tp3389
I0
s((g2
g1
g10
I3
tp3390
g14
tp3391
I0
s((g2
g6
g1
I4
tp3392
g17
tp3393
I0
s((g1
g2
g10
I6
tp3394
g4
tp3395
I0
s((g6
g1
g10
I3
tp3396
g4
tp3397
I0
s((g1
g2
g6
I3
tp3398
g17
tp3399
I0
s((g10
g1
g6
I6
tp3400
g36
tp3401
I0
s((g2
g6
g10
I11
tp3402
g17
tp3403
I0
s((g10
g2
g6
I9
tp3404
g36
tp3405
I0
s((g6
g1
g10
I6
tp3406
g4
tp3407
I0
s((g1
g10
g2
I3
tp3408
g14
tp3409
I0
s((g6
g2
g2
I8
tp3410
g17
tp3411
F5.5287500000000005
s((g6
g6
g2
I7
tp3412
g8
tp3413
F8.998243830455001
s((g10
g10
g10
I10
tp3414
g17
tp3415
F1101.0
s((g6
g2
g2
I11
tp3416
g17
tp3417
I0
s((g1
g1
g6
I8
tp3418
g8
tp3419
I0
s((g6
g10
g1
I10
tp3420
g36
tp3421
I0
s((g1
g1
g6
I6
tp3422
g8
tp3423
I0
s((g1
g1
g10
I5
tp3424
g36
tp3425
I0
s((g2
g6
g2
I9
tp3426
g36
tp3427
F186.21375
s((g1
g10
g6
I1
tp3428
g4
tp3429
I0
s((g6
g2
g10
I9
tp3430
g14
tp3431
F4775.207712000996
s((g1
g2
g10
I8
tp3432
g36
tp3433
I0
s((g2
g1
g1
I3
tp3434
g36
tp3435
I0
s((g2
g6
g1
I9
tp3436
g4
tp3437
I0
s((g10
g2
g10
I7
tp3438
g4
tp3439
F6.414270000000002
s((g6
g6
g1
I1
tp3440
g14
tp3441
I0
s((g2
g10
g10
I1
tp3442
g4
tp3443
I0
s((g1
g10
g1
I1
tp3444
g8
tp3445
I0
s((g1
g6
g2
I2
tp3446
g17
tp3447
I0
s((g10
g10
g10
I4
tp3448
g8
tp3449
F-0.0031666666666666683
s((g1
g2
g6
I10
tp3450
g14
tp3451
I0
s((g10
g2
g2
I4
tp3452
g17
tp3453
F-1.7550100000000002
s((g2
g1
g10
I4
tp3454
g14
tp3455
I0
s((g1
g6
g1
I2
tp3456
g14
tp3457
I0
s((g2
g2
g2
I2
tp3458
g8
tp3459
F-6.048330370466234
s((g2
g2
g6
I4
tp3460
g8
tp3461
F-0.5
s((g2
g1
g10
I6
tp3462
g8
tp3463
I0
s((g1
g6
g6
I2
tp3464
g4
tp3465
I0
s((g1
g6
g2
I2
tp3466
g8
tp3467
I0
s((g1
g6
g10
I11
tp3468
g14
tp3469
I0
s((g6
g6
g1
I11
tp3470
g17
tp3471
I0
s((g10
g1
g2
I10
tp3472
g8
tp3473
I0
s((g2
g6
g6
I4
tp3474
g17
tp3475
F0.0
s((g10
g6
g1
I9
tp3476
g8
tp3477
I0
s((g2
g1
g6
I8
tp3478
g36
tp3479
I0
s((g10
g1
g1
I11
tp3480
g8
tp3481
I0
s((g1
g2
g6
I1
tp3482
g8
tp3483
I0
s((g1
g1
g2
I2
tp3484
g8
tp3485
I0
s((g2
g6
g10
I7
tp3486
g4
tp3487
I0
s((g10
g6
g6
I2
tp3488
g17
tp3489
I0
s((g1
g6
g2
I2
tp3490
g4
tp3491
I0
s((g2
g10
g6
I8
tp3492
g36
tp3493
I0
s((g10
g6
g2
I5
tp3494
g14
tp3495
F2725.1136601366597
s((g1
g2
g2
I2
tp3496
g14
tp3497
I0
s((g6
g2
g6
I5
tp3498
g4
tp3499
I0
s((g10
g10
g1
I1
tp3500
g14
tp3501
I0
s((g6
g2
g10
I6
tp3502
g14
tp3503
F2668.19408229289
s((g2
g1
g1
I7
tp3504
g8
tp3505
I0
s((g1
g1
g6
I4
tp3506
g17
tp3507
I0
s((g1
g1
g6
I7
tp3508
g17
tp3509
I0
s((g2
g1
g10
I5
tp3510
g4
tp3511
I0
s((g2
g2
g10
I5
tp3512
g4
tp3513
F-2.16588578213
s((g1
g10
g10
I6
tp3514
g17
tp3515
I0
s((g2
g2
g2
I9
tp3516
g14
tp3517
F13280.514830012402
s((g10
g1
g6
I1
tp3518
g36
tp3519
I0
s((g2
g1
g2
I1
tp3520
g4
tp3521
I0
s((g1
g10
g1
I5
tp3522
g14
tp3523
I0
s((g1
g2
g2
I8
tp3524
g14
tp3525
I0
s((g1
g2
g1
I5
tp3526
g4
tp3527
I0
s((g10
g10
g1
I10
tp3528
g14
tp3529
I0
s((g2
g6
g10
I2
tp3530
g4
tp3531
I0
s((g1
g10
g2
I10
tp3532
g8
tp3533
I0
s((g1
g10
g1
I9
tp3534
g14
tp3535
I0
s((g2
g10
g6
I6
tp3536
g8
tp3537
I0
s((g2
g2
g1
I9
tp3538
g8
tp3539
I0
s((g10
g6
g6
I4
tp3540
g4
tp3541
I0
s((g1
g2
g10
I6
tp3542
g17
tp3543
I0
s((g2
g6
g10
I7
tp3544
g36
tp3545
I0
s((g2
g2
g6
I8
tp3546
g14
tp3547
F8883.756003402055
s((g2
g2
g10
I7
tp3548
g14
tp3549
F10711.487288173925
s((g10
g6
g6
I3
tp3550
g14
tp3551
I0
s((g2
g2
g6
I4
tp3552
g36
tp3553
F-0.5
s((g2
g6
g10
I8
tp3554
g14
tp3555
F1061.8884639940993
s((g2
g10
g10
I2
tp3556
g36
tp3557
I0
s((g6
g10
g6
I10
tp3558
g14
tp3559
F801.1
s((g1
g6
g10
I9
tp3560
g36
tp3561
I0
s((g2
g1
g10
I3
tp3562
g8
tp3563
I0
s((g6
g10
g10
I6
tp3564
g8
tp3565
I0
s((g1
g2
g1
I7
tp3566
g17
tp3567
I0
s((g1
g2
g1
I4
tp3568
g17
tp3569
I0
s((g1
g10
g2
I10
tp3570
g36
tp3571
I0
s((g1
g1
g1
I7
tp3572
g36
tp3573
I0
s((g10
g10
g1
I8
tp3574
g14
tp3575
I0
s((g1
g6
g10
I8
tp3576
g36
tp3577
I0
s((g2
g6
g1
I10
tp3578
g14
tp3579
I0
s((g1
g6
g6
I2
tp3580
g8
tp3581
I0
s((g6
g6
g2
I6
tp3582
g36
tp3583
F0.45
s((g10
g1
g10
I8
tp3584
g14
tp3585
I0
s((g10
g6
g10
I1
tp3586
g17
tp3587
I0
s((g2
g6
g10
I3
tp3588
g14
tp3589
F31.78143718997327
s((g10
g1
g6
I3
tp3590
g14
tp3591
I0
s((g1
g1
g6
I6
tp3592
g14
tp3593
I0
s((g1
g6
g2
I5
tp3594
g4
tp3595
I0
s((g6
g6
g6
I8
tp3596
g36
tp3597
F-0.05
s((g2
g1
g1
I7
tp3598
g14
tp3599
I0
s((g2
g10
g1
I5
tp3600
g36
tp3601
I0
s((g6
g1
g6
I4
tp3602
g4
tp3603
I0
s((g2
g2
g1
I6
tp3604
g4
tp3605
I0
s((g1
g2
g2
I1
tp3606
g8
tp3607
I0
s((g6
g10
g2
I7
tp3608
g36
tp3609
I0
s((g6
g1
g10
I9
tp3610
g4
tp3611
I0
s((g10
g10
g2
I7
tp3612
g4
tp3613
F36.30375818321335
s((g6
g6
g6
I1
tp3614
g4
tp3615
I0
s((g6
g2
g2
I4
tp3616
g17
tp3617
F-1.0855000000000001
s((g1
g2
g10
I9
tp3618
g8
tp3619
I0
s((g1
g2
g1
I9
tp3620
g14
tp3621
I0
s((g2
g1
g1
I10
tp3622
g36
tp3623
I0
s((g2
g6
g10
I5
tp3624
g36
tp3625
I0
s((g2
g10
g1
I9
tp3626
g4
tp3627
I0
s((g1
g10
g2
I2
tp3628
g14
tp3629
I0
s((g1
g6
g1
I1
tp3630
g4
tp3631
I0
s((g2
g1
g2
I6
tp3632
g4
tp3633
I0
s((g2
g2
g1
I10
tp3634
g36
tp3635
I0
s((g2
g6
g2
I7
tp3636
g36
tp3637
F2.358556295000001
s((g1
g2
g10
I7
tp3638
g8
tp3639
I0
s((g1
g6
g10
I6
tp3640
g14
tp3641
I0
s((g10
g1
g10
I4
tp3642
g17
tp3643
I0
s((g2
g6
g1
I3
tp3644
g36
tp3645
I0
s((g10
g1
g6
I6
tp3646
g8
tp3647
I0
s((g10
g1
g1
I11
tp3648
g14
tp3649
I0
s((g10
g10
g2
I9
tp3650
g14
tp3651
F12485.030204421177
s((g6
g6
g6
I7
tp3652
g8
tp3653
I0
s((g1
g1
g2
I9
tp3654
g4
tp3655
I0
s((g6
g2
g6
I6
tp3656
g36
tp3657
I0
s((g2
g1
g1
I3
tp3658
g4
tp3659
I0
s((g1
g10
g6
I6
tp3660
g36
tp3661
I0
s((g6
g10
g6
I7
tp3662
g36
tp3663
I0
s((g2
g6
g2
I9
tp3664
g8
tp3665
I0
s((g1
g2
g6
I10
tp3666
g4
tp3667
I0
s((g6
g6
g2
I3
tp3668
g36
tp3669
F0.5
s((g6
g6
g10
I3
tp3670
g36
tp3671
I0
s((g2
g2
g2
I3
tp3672
g17
tp3673
F-3.71505308299357
s((g6
g10
g2
I6
tp3674
g17
tp3675
I0
s((g1
g10
g2
I1
tp3676
g4
tp3677
I0
s((g10
g1
g10
I7
tp3678
g8
tp3679
I0
s((g6
g1
g6
I8
tp3680
g14
tp3681
I0
s((g10
g10
g6
I7
tp3682
g17
tp3683
I0
s((g2
g6
g2
I1
tp3684
g36
tp3685
I0
s((g2
g6
g10
I1
tp3686
g36
tp3687
I0
s((g6
g2
g6
I6
tp3688
g8
tp3689
I0
s((g1
g1
g2
I10
tp3690
g36
tp3691
I0
s((g1
g10
g6
I2
tp3692
g8
tp3693
I0
s((g10
g1
g1
I4
tp3694
g4
tp3695
I0
s((g6
g1
g6
I4
tp3696
g8
tp3697
I0
s((g1
g1
g2
I1
tp3698
g4
tp3699
F-12.717390057836292
s((g2
g1
g1
I3
tp3700
g17
tp3701
I0
s((g10
g2
g6
I5
tp3702
g14
tp3703
F367.3713256669425
s((g2
g6
g10
I5
tp3704
g17
tp3705
F-0.5
s((g6
g10
g2
I1
tp3706
g17
tp3707
I0
s((g2
g1
g2
I6
tp3708
g8
tp3709
I0
s((g10
g10
g1
I7
tp3710
g14
tp3711
I0
s((g1
g2
g2
I3
tp3712
g36
tp3713
I0
s((g1
g6
g10
I6
tp3714
g17
tp3715
I0
s((g1
g2
g6
I2
tp3716
g14
tp3717
I0
s((g1
g6
g6
I11
tp3718
g17
tp3719
I0
s((g6
g1
g6
I5
tp3720
g14
tp3721
I0
s((g2
g1
g1
I4
tp3722
g4
tp3723
I0
s((g6
g1
g1
I9
tp3724
g8
tp3725
I0
s((g2
g6
g2
I5
tp3726
g8
tp3727
F-0.14
s((g10
g1
g10
I3
tp3728
g14
tp3729
I0
s((g2
g10
g10
I6
tp3730
g17
tp3731
F0.125
s((g10
g2
g2
I9
tp3732
g36
tp3733
F359.93295
s((g6
g1
g2
I2
tp3734
g4
tp3735
I0
s((g6
g6
g2
I10
tp3736
g4
tp3737
I0
s((g1
g2
g2
I8
tp3738
g36
tp3739
I0
s((g6
g10
g2
I7
tp3740
g4
tp3741
F1.4519000000000006
s((g6
g2
g10
I8
tp3742
g36
tp3743
F-0.5
s((g2
g2
g6
I2
tp3744
g14
tp3745
F1667.3827961647673
s((g1
g1
g10
I8
tp3746
g17
tp3747
I0
s((g10
g2
g10
I5
tp3748
g4
tp3749
F-0.5645
s((g1
g2
g6
I9
tp3750
g36
tp3751
I0
s((g10
g10
g2
I7
tp3752
g17
tp3753
F-0.16666666666666674
s((g10
g10
g2
I4
tp3754
g17
tp3755
F-0.623139206604167
s((g6
g1
g6
I7
tp3756
g14
tp3757
I0
s((g1
g2
g2
I10
tp3758
g14
tp3759
I0
s((g2
g10
g2
I5
tp3760
g17
tp3761
F0.9625000000000001
s((g10
g6
g2
I10
tp3762
g14
tp3763
F1401.5
s((g2
g6
g1
I2
tp3764
g4
tp3765
I0
s((g1
g6
g2
I4
tp3766
g8
tp3767
I0
s((g10
g6
g6
I3
tp3768
g4
tp3769
I0
s((g2
g6
g10
I3
tp3770
g17
tp3771
I0
s((g2
g1
g6
I8
tp3772
g8
tp3773
I0
s((g6
g10
g6
I6
tp3774
g8
tp3775
I0
s((g6
g2
g1
I10
tp3776
g36
tp3777
I0
s((g10
g2
g1
I10
tp3778
g4
tp3779
I0
s((g1
g6
g2
I3
tp3780
g14
tp3781
I0
s((g1
g2
g6
I11
tp3782
g36
tp3783
I0
s((g1
g6
g6
I10
tp3784
g36
tp3785
I0
s((g2
g1
g2
I8
tp3786
g14
tp3787
I0
s((g6
g6
g10
I6
tp3788
g17
tp3789
F-0.16666666666666674
s((g2
g10
g6
I8
tp3790
g17
tp3791
I0
s((g10
g1
g1
I10
tp3792
g36
tp3793
I0
s((g1
g1
g6
I5
tp3794
g4
tp3795
I0
s((g6
g1
g2
I1
tp3796
g17
tp3797
I0
s((g2
g2
g10
I10
tp3798
g14
tp3799
F11613.487847542554
s((g10
g1
g2
I3
tp3800
g14
tp3801
I0
s((g10
g1
g2
I4
tp3802
g8
tp3803
I0
s((g10
g2
g10
I8
tp3804
g8
tp3805
F75.8172487445
s((g10
g6
g1
I6
tp3806
g8
tp3807
I0
s((g2
g10
g1
I11
tp3808
g36
tp3809
I0
s((g1
g10
g6
I7
tp3810
g8
tp3811
I0
s((g1
g6
g2
I5
tp3812
g14
tp3813
I0
s((g10
g10
g10
I5
tp3814
g36
tp3815
F0.0
s((g10
g10
g6
I4
tp3816
g8
tp3817
I0
s((g10
g2
g6
I3
tp3818
g4
tp3819
I0
s((g2
g6
g10
I1
tp3820
g14
tp3821
I0
s((g10
g1
g2
I10
tp3822
g14
tp3823
I0
s((g2
g6
g6
I1
tp3824
g8
tp3825
I0
s((g1
g1
g2
I5
tp3826
g14
tp3827
I0
s((g2
g2
g10
I8
tp3828
g17
tp3829
F-1.405
s((g6
g6
g10
I6
tp3830
g14
tp3831
I0
s((g6
g6
g1
I9
tp3832
g36
tp3833
I0
s((g6
g10
g1
I1
tp3834
g14
tp3835
I0
s((g6
g6
g2
I2
tp3836
g4
tp3837
F0.817573314915925
s((g1
g1
g1
I4
tp3838
g4
tp3839
I0
s((g10
g6
g10
I11
tp3840
g36
tp3841
I0
s((g2
g10
g1
I9
tp3842
g14
tp3843
I0
s((g1
g6
g2
I8
tp3844
g14
tp3845
I0
s((g6
g6
g2
I11
tp3846
g4
tp3847
I0
s((g2
g1
g10
I7
tp3848
g36
tp3849
I0
s((g6
g1
g2
I4
tp3850
g14
tp3851
I0
s((g1
g1
g6
I4
tp3852
g14
tp3853
I0
s((g2
g1
g10
I1
tp3854
g36
tp3855
I0
s((g1
g10
g6
I11
tp3856
g8
tp3857
I0
s((g6
g2
g6
I6
tp3858
g14
tp3859
F45.876147475191544
s((g2
g1
g10
I5
tp3860
g17
tp3861
I0
s((g6
g1
g2
I10
tp3862
g36
tp3863
I0
s((g2
g6
g10
I5
tp3864
g8
tp3865
I0
s((g10
g1
g6
I1
tp3866
g4
tp3867
I0
s((g2
g6
g6
I5
tp3868
g17
tp3869
F0.05125000000000001
s((g6
g2
g6
I5
tp3870
g17
tp3871
I0
s((g2
g10
g10
I10
tp3872
g17
tp3873
I0
s((g6
g10
g10
I10
tp3874
g17
tp3875
I0
s((g10
g6
g1
I11
tp3876
g14
tp3877
I0
s((g10
g6
g2
I3
tp3878
g36
tp3879
I0
s((g10
g6
g6
I2
tp3880
g4
tp3881
F-0.5412112450000001
s((g6
g6
g6
I8
tp3882
g8
tp3883
I0
s((g6
g6
g6
I6
tp3884
g8
tp3885
I0
s((g1
g2
g6
I5
tp3886
g4
tp3887
I0
s((g1
g1
g1
I9
tp3888
g4
tp3889
I0
s((g10
g6
g1
I10
tp3890
g17
tp3891
I0
s((g2
g1
g2
I6
tp3892
g36
tp3893
I0
s((g10
g6
g1
I9
tp3894
g17
tp3895
I0
s((g10
g6
g2
I7
tp3896
g8
tp3897
I0
s((g1
g1
g6
I2
tp3898
g8
tp3899
I0
s((g2
g2
g2
I10
tp3900
g36
tp3901
F8467.421098651794
s((g10
g6
g6
I9
tp3902
g8
tp3903
I0
s((g10
g6
g10
I9
tp3904
g36
tp3905
I0
s((g10
g2
g2
I3
tp3906
g8
tp3907
F-3.772807246455001
s((g1
g1
g6
I10
tp3908
g4
tp3909
I0
s((g6
g1
g6
I8
tp3910
g17
tp3911
I0
s((g10
g2
g6
I10
tp3912
g14
tp3913
F1201.5
s((g10
g2
g6
I10
tp3914
g8
tp3915
F401.5
s((g10
g2
g10
I10
tp3916
g17
tp3917
F600.5
s((g6
g10
g10
I9
tp3918
g36
tp3919
F0.0
s((g6
g1
g1
I10
tp3920
g8
tp3921
I0
s((g6
g2
g2
I9
tp3922
g14
tp3923
F12476.235681228363
s((g10
g2
g1
I11
tp3924
g36
tp3925
I0
s((g6
g1
g6
I10
tp3926
g14
tp3927
I0
s((g2
g10
g10
I3
tp3928
g17
tp3929
I0
s((g10
g1
g10
I9
tp3930
g17
tp3931
I0
s((g10
g1
g6
I6
tp3932
g17
tp3933
I0
s((g2
g2
g1
I9
tp3934
g4
tp3935
I0
s((g1
g1
g10
I4
tp3936
g17
tp3937
I0
s((g1
g2
g10
I2
tp3938
g4
tp3939
I0
s((g1
g1
g10
I7
tp3940
g17
tp3941
I0
s((g10
g1
g1
I9
tp3942
g14
tp3943
I0
s((g10
g10
g10
I11
tp3944
g8
tp3945
I0
s((g2
g1
g2
I10
tp3946
g4
tp3947
I0
s((g10
g2
g2
I1
tp3948
g8
tp3949
I0
s((g6
g1
g6
I6
tp3950
g8
tp3951
I0
s((g2
g1
g1
I7
tp3952
g4
tp3953
I0
s((g2
g10
g1
I11
tp3954
g4
tp3955
I0
s((g1
g1
g10
I2
tp3956
g8
tp3957
I0
s((g6
g2
g10
I10
tp3958
g8
tp3959
F1000.5
s((g2
g1
g6
I3
tp3960
g14
tp3961
I0
s((g1
g6
g6
I4
tp3962
g14
tp3963
I0
s((g10
g2
g2
I6
tp3964
g4
tp3965
F-0.28923764999999985
s((g10
g2
g6
I1
tp3966
g4
tp3967
I0
s((g6
g10
g6
I11
tp3968
g36
tp3969
I0
s((g10
g2
g2
I1
tp3970
g4
tp3971
I0
s((g6
g10
g6
I1
tp3972
g14
tp3973
I0
s((g6
g2
g2
I8
tp3974
g8
tp3975
F-0.5
s((g10
g1
g2
I3
tp3976
g8
tp3977
I0
s((g1
g6
g10
I11
tp3978
g8
tp3979
I0
s((g1
g6
g1
I3
tp3980
g14
tp3981
I0
s((g1
g10
g2
I11
tp3982
g36
tp3983
I0
s((g1
g2
g10
I3
tp3984
g8
tp3985
I0
s((g2
g6
g1
I6
tp3986
g17
tp3987
I0
s((g1
g6
g10
I2
tp3988
g14
tp3989
I0
s((g2
g1
g6
I7
tp3990
g8
tp3991
I0
s((g2
g2
g6
I6
tp3992
g36
tp3993
F-0.95
s((g6
g10
g2
I9
tp3994
g4
tp3995
I0
s((g2
g6
g2
I7
tp3996
g17
tp3997
F9.558311550000003
s((g2
g10
g10
I2
tp3998
g14
tp3999
F1351.1064321780686
s((g10
g1
g2
I11
tp4000
g14
tp4001
I0
s((g1
g10
g1
I9
tp4002
g36
tp4003
I0
s((g6
g2
g10
I8
tp4004
g8
tp4005
F-0.9666666666666668
s((g6
g2
g6
I6
tp4006
g17
tp4007
I0
s((g1
g1
g10
I2
tp4008
g4
tp4009
I0
s((g2
g1
g6
I11
tp4010
g14
tp4011
I0
s((g6
g2
g2
I8
tp4012
g36
tp4013
F97.57879153254501
s((g2
g10
g1
I1
tp4014
g17
tp4015
I0
s((g10
g6
g2
I2
tp4016
g8
tp4017
I0
s((g1
g1
g1
I9
tp4018
g14
tp4019
I0
s((g1
g10
g1
I4
tp4020
g36
tp4021
I0
s((g6
g2
g10
I8
tp4022
g4
tp4023
I0
s((g2
g10
g10
I2
tp4024
g4
tp4025
F0.125
s((g6
g10
g10
I2
tp4026
g36
tp4027
F-0.09375
s((g1
g10
g1
I2
tp4028
g36
tp4029
I0
s((g2
g10
g2
I3
tp4030
g8
tp4031
F1.3366700000000002
s((g10
g6
g1
I1
tp4032
g4
tp4033
I0
s((g1
g10
g10
I11
tp4034
g4
tp4035
I0
s((g6
g1
g1
I4
tp4036
g17
tp4037
I0
s((g2
g1
g6
I1
tp4038
g14
tp4039
I0
s((g2
g2
g1
I3
tp4040
g4
tp4041
I0
s((g10
g10
g6
I6
tp4042
g14
tp4043
F324.91470443915074
s((g10
g1
g1
I7
tp4044
g36
tp4045
I0
s((g1
g2
g2
I4
tp4046
g17
tp4047
I0
s((g6
g6
g6
I1
tp4048
g8
tp4049
I0
s((g2
g10
g2
I4
tp4050
g36
tp4051
F1.3150000000000002
s((g1
g2
g10
I5
tp4052
g36
tp4053
I0
s((g10
g1
g6
I9
tp4054
g36
tp4055
I0
s((g10
g1
g2
I1
tp4056
g14
tp4057
I0
s((g2
g6
g6
I2
tp4058
g36
tp4059
I0
s((g2
g1
g6
I3
tp4060
g17
tp4061
I0
s((g2
g6
g6
I8
tp4062
g14
tp4063
F1051.5921576560615
s((g6
g6
g10
I7
tp4064
g36
tp4065
I0
s((g2
g2
g1
I5
tp4066
g36
tp4067
I0
s((g2
g10
g10
I5
tp4068
g36
tp4069
I0
s((g2
g1
g1
I4
tp4070
g14
tp4071
I0
s((g2
g10
g2
I7
tp4072
g36
tp4073
F4.855416165500001
s((g1
g1
g1
I6
tp4074
g4
tp4075
I0
s((g2
g1
g10
I9
tp4076
g36
tp4077
I0
s((g10
g1
g10
I2
tp4078
g4
tp4079
I0
s((g10
g6
g2
I9
tp4080
g14
tp4081
F8987.164117297072
s((g6
g2
g10
I7
tp4082
g14
tp4083
F96.55536915511296
s((g6
g1
g2
I4
tp4084
g36
tp4085
I0
s((g2
g2
g10
I11
tp4086
g14
tp4087
I0
s((g1
g6
g1
I4
tp4088
g8
tp4089
I0
s((g1
g6
g1
I10
tp4090
g36
tp4091
I0
s((g10
g10
g6
I9
tp4092
g36
tp4093
F0.0
s((g1
g1
g1
I8
tp4094
g4
tp4095
I0
s((g2
g2
g6
I11
tp4096
g36
tp4097
I0
s((g1
g6
g2
I6
tp4098
g14
tp4099
I0
s((g1
g2
g2
I6
tp4100
g4
tp4101
I0
s((g6
g1
g1
I3
tp4102
g4
tp4103
I0
s((g10
g6
g1
I6
tp4104
g17
tp4105
I0
s((g1
g2
g2
I1
tp4106
g14
tp4107
I0
s((g2
g10
g1
I5
tp4108
g8
tp4109
I0
s((g1
g1
g1
I8
tp4110
g8
tp4111
I0
s((g10
g1
g1
I9
tp4112
g8
tp4113
I0
s((g2
g6
g1
I3
tp4114
g14
tp4115
I0
s((g1
g10
g1
I8
tp4116
g17
tp4117
I0
s((g1
g10
g6
I7
tp4118
g36
tp4119
I0
s((g1
g1
g10
I1
tp4120
g4
tp4121
F-7.074664715387061
s((g1
g1
g6
I5
tp4122
g8
tp4123
I0
s((g1
g2
g2
I6
tp4124
g8
tp4125
I0
s((g1
g10
g2
I1
tp4126
g36
tp4127
I0
s((g2
g10
g1
I4
tp4128
g14
tp4129
I0
s((g6
g2
g10
I1
tp4130
g4
tp4131
I0
s((g1
g2
g6
I5
tp4132
g14
tp4133
I0
s((g2
g2
g2
I10
tp4134
g14
tp4135
F12236.765356701213
s((g10
g2
g2
I5
tp4136
g14
tp4137
F11279.704622172134
s((g2
g1
g2
I5
tp4138
g17
tp4139
I0
s((g1
g6
g1
I6
tp4140
g17
tp4141
I0
s((g2
g1
g10
I11
tp4142
g17
tp4143
I0
s((g1
g6
g10
I11
tp4144
g17
tp4145
I0
s((g1
g1
g6
I7
tp4146
g14
tp4147
I0
s((g1
g6
g6
I1
tp4148
g36
tp4149
I0
s((g1
g10
g10
I3
tp4150
g4
tp4151
I0
s((g10
g1
g2
I5
tp4152
g8
tp4153
I0
s((g6
g1
g2
I2
tp4154
g36
tp4155
I0
s((g6
g10
g10
I6
tp4156
g36
tp4157
I0
s((g10
g2
g2
I2
tp4158
g8
tp4159
F-2.7172201848495003
s((g1
g2
g2
I2
tp4160
g17
tp4161
I0
s((g6
g6
g2
I3
tp4162
g14
tp4163
F2840.3905579247034
s((g1
g2
g1
I10
tp4164
g8
tp4165
I0
s((g10
g6
g2
I4
tp4166
g17
tp4167
I0
s((g6
g6
g6
I2
tp4168
g8
tp4169
F-0.05503166666666667
s((g2
g2
g1
I11
tp4170
g14
tp4171
I0
s((g10
g1
g2
I6
tp4172
g4
tp4173
I0
s((g1
g10
g1
I6
tp4174
g4
tp4175
I0
s((g2
g10
g2
I1
tp4176
g36
tp4177
I0
s((g6
g6
g6
I3
tp4178
g14
tp4179
I0
s((g10
g10
g10
I11
tp4180
g14
tp4181
I0
s((g10
g6
g6
I5
tp4182
g8
tp4183
I0
s((g6
g1
g2
I6
tp4184
g8
tp4185
I0
s((g6
g10
g6
I3
tp4186
g8
tp4187
I0
s((g1
g10
g2
I11
tp4188
g14
tp4189
I0
s((g10
g1
g10
I10
tp4190
g14
tp4191
I0
s((g2
g1
g10
I2
tp4192
g4
tp4193
I0
s((g6
g2
g1
I8
tp4194
g8
tp4195
I0
s((g10
g6
g10
I7
tp4196
g4
tp4197
F0.5
s((g1
g6
g6
I3
tp4198
g17
tp4199
I0
s((g6
g6
g2
I8
tp4200
g8
tp4201
F21.310865500000002
s((g10
g10
g10
I10
tp4202
g14
tp4203
F7042.754047900002
s((g6
g6
g10
I10
tp4204
g4
tp4205
I0
s((g2
g10
g6
I3
tp4206
g8
tp4207
I0
s((g10
g1
g10
I3
tp4208
g36
tp4209
I0
s((g6
g10
g6
I8
tp4210
g8
tp4211
I0
s((g1
g6
g6
I6
tp4212
g14
tp4213
I0
s((g2
g1
g6
I5
tp4214
g17
tp4215
I0
s((g2
g1
g10
I10
tp4216
g4
tp4217
I0
s((g10
g1
g6
I4
tp4218
g4
tp4219
I0
s((g2
g6
g6
I11
tp4220
g14
tp4221
I0
s((g6
g1
g6
I9
tp4222
g14
tp4223
I0
s((g1
g2
g2
I7
tp4224
g4
tp4225
I0
s((g6
g2
g6
I2
tp4226
g14
tp4227
F632.4917349131691
s((g2
g6
g2
I3
tp4228
g14
tp4229
F6061.663665123293
s((g10
g10
g10
I8
tp4230
g36
tp4231
I0
s((g2
g1
g2
I10
tp4232
g36
tp4233
I0
s((g6
g10
g10
I7
tp4234
g8
tp4235
I0
s((g10
g6
g1
I10
tp4236
g8
tp4237
I0
s((g6
g6
g6
I5
tp4238
g17
tp4239
I0
s((g6
g1
g1
I10
tp4240
g36
tp4241
I0
s((g6
g2
g2
I6
tp4242
g36
tp4243
F-2.139226316666667
s((g1
g6
g10
I7
tp4244
g36
tp4245
I0
s((g6
g10
g2
I11
tp4246
g36
tp4247
I0
s((g6
g6
g2
I8
tp4248
g36
tp4249
F26.657100000000007
s((g1
g2
g2
I9
tp4250
g4
tp4251
I0
s((g6
g2
g2
I10
tp4252
g14
tp4253
F11151.166607735753
s((g6
g2
g10
I2
tp4254
g4
tp4255
I0
s((g10
g1
g10
I3
tp4256
g8
tp4257
I0
s((g10
g10
g1
I3
tp4258
g17
tp4259
I0
s((g2
g1
g2
I11
tp4260
g8
tp4261
I0
s((g6
g1
g10
I10
tp4262
g14
tp4263
I0
s((g2
g1
g10
I3
tp4264
g17
tp4265
I0
s((g2
g2
g6
I2
tp4266
g8
tp4267
F-0.833405
s((g6
g2
g10
I10
tp4268
g36
tp4269
F400.5
s((g2
g10
g6
I1
tp4270
g36
tp4271
I0
s((g6
g10
g6
I5
tp4272
g8
tp4273
I0
s((g6
g10
g2
I9
tp4274
g36
tp4275
I0
s((g10
g10
g1
I11
tp4276
g36
tp4277
I0
s((g6
g1
g6
I6
tp4278
g4
tp4279
I0
s((g1
g2
g10
I5
tp4280
g14
tp4281
I0
s((g1
g2
g1
I10
tp4282
g4
tp4283
I0
s((g2
g2
g10
I1
tp4284
g36
tp4285
I0
s((g1
g1
g10
I11
tp4286
g8
tp4287
I0
s((g10
g10
g2
I2
tp4288
g4
tp4289
F0.16675736033399327
s((g2
g10
g2
I11
tp4290
g14
tp4291
I0
s((g6
g10
g6
I2
tp4292
g14
tp4293
F507.555442560832
s((g1
g10
g6
I3
tp4294
g17
tp4295
I0
s((g1
g10
g6
I10
tp4296
g17
tp4297
I0
s((g2
g1
g2
I4
tp4298
g14
tp4299
I0
s((g1
g6
g2
I1
tp4300
g36
tp4301
I0
s((g1
g2
g10
I7
tp4302
g4
tp4303
I0
s((g10
g10
g2
I11
tp4304
g8
tp4305
I0
s((g10
g2
g10
I3
tp4306
g36
tp4307
F-1.7195
s((g10
g10
g10
I4
tp4308
g17
tp4309
F-0.04050000000000001
s((g6
g2
g1
I3
tp4310
g14
tp4311
I0
s((g2
g6
g2
I8
tp4312
g4
tp4313
F11.055000000000001
s((g1
g6
g6
I9
tp4314
g17
tp4315
I0
s((g6
g2
g2
I1
tp4316
g14
tp4317
I0
s((g1
g1
g1
I11
tp4318
g36
tp4319
I0
s((g2
g2
g1
I9
tp4320
g17
tp4321
I0
s((g1
g1
g6
I7
tp4322
g8
tp4323
I0
s((g1
g6
g1
I7
tp4324
g36
tp4325
I0
s((g2
g2
g2
I1
tp4326
g4
tp4327
I0
s((g6
g6
g10
I6
tp4328
g36
tp4329
I0
s((g2
g1
g10
I11
tp4330
g14
tp4331
I0
s((g1
g1
g1
I10
tp4332
g4
tp4333
I0
s((g10
g1
g6
I9
tp4334
g4
tp4335
I0
s((g1
g10
g6
I7
tp4336
g14
tp4337
I0
s((g6
g6
g1
I1
tp4338
g8
tp4339
I0
s((g1
g2
g10
I11
tp4340
g14
tp4341
I0
s((g6
g6
g1
I4
tp4342
g4
tp4343
I0
s((g10
g6
g6
I7
tp4344
g4
tp4345
I0
s((g2
g1
g1
I8
tp4346
g36
tp4347
I0
s((g2
g1
g6
I8
tp4348
g17
tp4349
I0
s((g10
g1
g2
I2
tp4350
g36
tp4351
I0
s((g1
g6
g2
I4
tp4352
g17
tp4353
I0
s((g10
g6
g10
I10
tp4354
g14
tp4355
F7839.212782562787
s((g6
g2
g1
I7
tp4356
g17
tp4357
I0
s((g6
g6
g10
I6
tp4358
g8
tp4359
I0
s((g10
g10
g1
I4
tp4360
g4
tp4361
I0
s((g2
g1
g2
I3
tp4362
g14
tp4363
I0
s((g6
g10
g1
I7
tp4364
g14
tp4365
I0
s((g6
g2
g2
I2
tp4366
g4
tp4367
F-0.5
s((g6
g2
g10
I4
tp4368
g14
tp4369
F2483.3555978829895
s((g6
g2
g10
I1
tp4370
g14
tp4371
I0
s((g6
g2
g1
I8
tp4372
g14
tp4373
I0
s((g1
g10
g6
I8
tp4374
g36
tp4375
I0
s((g1
g2
g1
I4
tp4376
g8
tp4377
I0
s((g6
g1
g6
I1
tp4378
g4
tp4379
I0
s((g10
g6
g2
I6
tp4380
g8
tp4381
I0
s((g2
g2
g1
I4
tp4382
g14
tp4383
I0
s((g10
g6
g1
I11
tp4384
g36
tp4385
I0
s((g1
g10
g2
I6
tp4386
g4
tp4387
I0
s((g2
g2
g10
I10
tp4388
g17
tp4389
F4039.352795
s((g2
g2
g2
I6
tp4390
g14
tp4391
F12772.313612299959
s((g6
g2
g10
I2
tp4392
g36
tp4393
F-0.6355000000000001
s((g2
g2
g2
I3
tp4394
g36
tp4395
F-4.9388875847105
s((g6
g10
g2
I4
tp4396
g8
tp4397
F-0.76112745
s((g1
g2
g2
I3
tp4398
g17
tp4399
I0
s((g2
g1
g6
I6
tp4400
g4
tp4401
I0
s((g2
g2
g10
I8
tp4402
g14
tp4403
F10658.95642545976
s((g6
g1
g1
I2
tp4404
g36
tp4405
I0
s((g1
g10
g6
I2
tp4406
g17
tp4407
I0
s((g2
g2
g6
I5
tp4408
g17
tp4409
F-0.95
s((g10
g2
g1
I9
tp4410
g8
tp4411
I0
s((g10
g2
g2
I6
tp4412
g8
tp4413
F-0.98075
s((g1
g2
g1
I1
tp4414
g4
tp4415
I0
s((g10
g2
g10
I7
tp4416
g14
tp4417
F7144.107859156927
s((g10
g10
g6
I4
tp4418
g4
tp4419
I0
s((g2
g1
g6
I3
tp4420
g8
tp4421
I0
s((g10
g10
g1
I9
tp4422
g17
tp4423
I0
s((g1
g2
g1
I6
tp4424
g4
tp4425
I0
s((g1
g6
g6
I11
tp4426
g8
tp4427
I0
s((g2
g10
g2
I7
tp4428
g17
tp4429
F1.579
s((g6
g1
g1
I6
tp4430
g36
tp4431
I0
s((g6
g6
g10
I10
tp4432
g14
tp4433
F1200.8333333333333
s((g1
g10
g2
I9
tp4434
g14
tp4435
I0
s((g6
g1
g1
I10
tp4436
g14
tp4437
I0
s((g2
g10
g1
I1
tp4438
g8
tp4439
I0
s((g2
g2
g2
I7
tp4440
g17
tp4441
F-3.9108848095499997
s((g6
g1
g1
I2
tp4442
g8
tp4443
I0
s((g10
g10
g10
I8
tp4444
g14
tp4445
F4051.1828920669946
s((g1
g2
g10
I10
tp4446
g17
tp4447
I0
s((g1
g6
g6
I8
tp4448
g14
tp4449
I0
s((g10
g6
g2
I3
tp4450
g8
tp4451
F0.35545000000000004
s((g2
g6
g1
I7
tp4452
g4
tp4453
I0
s((g6
g6
g2
I6
tp4454
g14
tp4455
F8281.503354865512
s((g6
g2
g6
I1
tp4456
g36
tp4457
I0
s((g6
g6
g2
I1
tp4458
g36
tp4459
I0
s((g2
g10
g6
I11
tp4460
g36
tp4461
I0
s((g1
g6
g6
I7
tp4462
g8
tp4463
I0
s((g2
g2
g10
I9
tp4464
g36
tp4465
F247.00625500000007
s((g6
g2
g2
I8
tp4466
g14
tp4467
F12512.5787395531
s((g2
g6
g2
I3
tp4468
g4
tp4469
I0
s((g2
g6
g1
I10
tp4470
g4
tp4471
I0
s((g6
g6
g6
I6
tp4472
g36
tp4473
I0
s((g1
g6
g6
I5
tp4474
g14
tp4475
I0
s((g10
g2
g10
I1
tp4476
g8
tp4477
I0
s((g2
g6
g2
I10
tp4478
g36
tp4479
I0
s((g1
g1
g2
I1
tp4480
g8
tp4481
F-10.679853995157483
s((g2
g6
g1
I4
tp4482
g36
tp4483
I0
s((g1
g1
g10
I10
tp4484
g17
tp4485
I0
s((g10
g6
g10
I1
tp4486
g14
tp4487
I0
s((g10
g10
g10
I2
tp4488
g14
tp4489
F1940.787668996049
s((g2
g6
g6
I1
tp4490
g36
tp4491
I0
s((g1
g1
g10
I4
tp4492
g8
tp4493
I0
s((g10
g1
g2
I7
tp4494
g36
tp4495
I0
s((g1
g6
g6
I3
tp4496
g14
tp4497
I0
s((g1
g10
g1
I3
tp4498
g4
tp4499
I0
s((g2
g10
g6
I7
tp4500
g8
tp4501
F0.0
s((g1
g1
g10
I3
tp4502
g14
tp4503
I0
s((g1
g1
g1
I5
tp4504
g36
tp4505
I0
s((g6
g2
g10
I10
tp4506
g17
tp4507
I0
s((g6
g2
g10
I1
tp4508
g8
tp4509
I0
s((g2
g1
g2
I2
tp4510
g17
tp4511
I0
s((g1
g6
g1
I7
tp4512
g14
tp4513
I0
s((g10
g6
g1
I8
tp4514
g8
tp4515
I0
s((g6
g6
g2
I4
tp4516
g36
tp4517
I0
s((g1
g1
g2
I10
tp4518
g8
tp4519
I0
s((g10
g10
g6
I10
tp4520
g17
tp4521
F1401.0
s((g1
g6
g2
I1
tp4522
g8
tp4523
I0
s((g1
g1
g6
I1
tp4524
g17
tp4525
F-8.418868679682966
s((g1
g1
g10
I4
tp4526
g36
tp4527
I0
s((g10
g1
g10
I9
tp4528
g36
tp4529
I0
s((g2
g10
g1
I10
tp4530
g17
tp4531
I0
s((g6
g2
g1
I3
tp4532
g8
tp4533
I0
s((g1
g10
g1
I4
tp4534
g4
tp4535
I0
s((g1
g1
g2
I2
tp4536
g36
tp4537
I0
s((g10
g1
g1
I8
tp4538
g8
tp4539
I0
s((g10
g6
g6
I9
tp4540
g36
tp4541
I0
s((g1
g10
g6
I7
tp4542
g4
tp4543
I0
s((g1
g1
g1
I5
tp4544
g14
tp4545
I0
s((g1
g1
g10
I6
tp4546
g4
tp4547
I0
s((g1
g10
g2
I7
tp4548
g17
tp4549
I0
s((g6
g6
g6
I4
tp4550
g36
tp4551
I0
s((g1
g2
g6
I2
tp4552
g8
tp4553
I0
s((g1
g1
g10
I9
tp4554
g17
tp4555
I0
s((g6
g2
g10
I11
tp4556
g14
tp4557
I0
s((g2
g10
g10
I9
tp4558
g4
tp4559
F207.25083333333333
s((g2
g10
g10
I11
tp4560
g4
tp4561
I0
s((g1
g1
g6
I2
tp4562
g4
tp4563
I0
s((g6
g6
g10
I2
tp4564
g14
tp4565
I0
s((g6
g6
g10
I5
tp4566
g17
tp4567
I0
s((g10
g2
g2
I11
tp4568
g14
tp4569
I0
s((g2
g2
g2
I10
tp4570
g17
tp4571
F9454.832389780851
s((g1
g2
g1
I3
tp4572
g17
tp4573
I0
s((g2
g2
g10
I11
tp4574
g8
tp4575
I0
s((g1
g1
g1
I2
tp4576
g14
tp4577
I0
s((g2
g10
g2
I10
tp4578
g8
tp4579
F1201.5
s((g1
g2
g1
I11
tp4580
g8
tp4581
I0
s((g2
g2
g10
I2
tp4582
g36
tp4583
F-2.077716666666667
s((g10
g6
g10
I7
tp4584
g36
tp4585
F0.5
s((g10
g1
g1
I2
tp4586
g36
tp4587
I0
s((g10
g10
g6
I11
tp4588
g17
tp4589
I0
s((g1
g10
g2
I9
tp4590
g8
tp4591
I0
s((g2
g10
g6
I8
tp4592
g4
tp4593
I0
s((g2
g6
g2
I6
tp4594
g17
tp4595
I0
s((g1
g10
g6
I4
tp4596
g36
tp4597
I0
s((g6
g1
g2
I6
tp4598
g17
tp4599
I0
s((g10
g1
g6
I10
tp4600
g8
tp4601
I0
s((g1
g2
g10
I9
tp4602
g4
tp4603
I0
s((g2
g1
g6
I9
tp4604
g8
tp4605
I0
s((g2
g6
g1
I1
tp4606
g17
tp4607
I0
s((g6
g6
g6
I9
tp4608
g4
tp4609
I0
s((g1
g10
g1
I1
tp4610
g14
tp4611
I0
s((g10
g1
g10
I10
tp4612
g8
tp4613
I0
s((g10
g10
g6
I9
tp4614
g4
tp4615
I0
s((g10
g10
g6
I11
tp4616
g4
tp4617
I0
s((g2
g1
g6
I8
tp4618
g14
tp4619
I0
s((g10
g6
g6
I6
tp4620
g36
tp4621
I0
s((g1
g6
g2
I10
tp4622
g36
tp4623
I0
s((g10
g6
g10
I3
tp4624
g8
tp4625
I0
s((g2
g10
g1
I2
tp4626
g14
tp4627
I0
s((g2
g10
g1
I8
tp4628
g14
tp4629
I0
s((g1
g1
g6
I1
tp4630
g36
tp4631
F-6.576237649
s((g1
g10
g2
I9
tp4632
g36
tp4633
I0
s((g2
g2
g2
I6
tp4634
g8
tp4635
F-1.7606287550484279
s((g2
g2
g1
I11
tp4636
g8
tp4637
I0
s((g2
g1
g10
I6
tp4638
g36
tp4639
I0
s((g6
g1
g6
I1
tp4640
g17
tp4641
I0
s((g6
g6
g10
I7
tp4642
g4
tp4643
I0
s((g6
g2
g2
I5
tp4644
g36
tp4645
F-1.12195
s((g1
g1
g6
I11
tp4646
g17
tp4647
I0
s((g2
g2
g1
I7
tp4648
g14
tp4649
I0
s((g10
g2
g6
I4
tp4650
g36
tp4651
I0
s((g10
g2
g2
I2
tp4652
g14
tp4653
F9550.33184777043
s((g6
g2
g2
I1
tp4654
g17
tp4655
I0
s((g10
g10
g2
I1
tp4656
g8
tp4657
I0
s((g6
g6
g10
I5
tp4658
g14
tp4659
I0
s((g6
g2
g1
I9
tp4660
g4
tp4661
I0
s((g6
g1
g6
I7
tp4662
g36
tp4663
I0
s((g2
g1
g1
I2
tp4664
g17
tp4665
I0
s((g6
g2
g1
I4
tp4666
g36
tp4667
I0
s((g2
g6
g2
I6
tp4668
g14
tp4669
F11996.670542050117
s((g1
g10
g6
I3
tp4670
g14
tp4671
I0
s((g1
g10
g2
I7
tp4672
g14
tp4673
I0
s((g1
g10
g2
I6
tp4674
g14
tp4675
I0
s((g6
g2
g10
I6
tp4676
g8
tp4677
I0
s((g2
g1
g1
I1
tp4678
g17
tp4679
I0
s((g1
g2
g10
I8
tp4680
g17
tp4681
I0
s((g1
g2
g6
I6
tp4682
g4
tp4683
I0
s((g1
g6
g6
I5
tp4684
g36
tp4685
I0
s((g1
g6
g6
I10
tp4686
g14
tp4687
I0
s((g6
g1
g10
I9
tp4688
g8
tp4689
I0
s((g6
g2
g10
I10
tp4690
g4
tp4691
I0
s((g1
g6
g2
I8
tp4692
g8
tp4693
I0
s((g1
g2
g2
I1
tp4694
g4
tp4695
I0
s((g6
g10
g1
I3
tp4696
g14
tp4697
I0
s((g6
g6
g2
I8
tp4698
g14
tp4699
F10201.84297795573
s((g2
g2
g2
I9
tp4700
g36
tp4701
F952.0864334136145
s((g2
g1
g2
I7
tp4702
g17
tp4703
I0
s((g6
g1
g10
I10
tp4704
g17
tp4705
I0
s((g10
g6
g6
I9
tp4706
g17
tp4707
I0
s((g1
g10
g2
I10
tp4708
g14
tp4709
I0
s((g6
g1
g1
I5
tp4710
g14
tp4711
I0
s((g6
g1
g2
I3
tp4712
g14
tp4713
I0
s((g10
g6
g1
I4
tp4714
g4
tp4715
I0
s((g6
g1
g2
I7
tp4716
g36
tp4717
I0
s((g6
g1
g6
I9
tp4718
g8
tp4719
I0
s((g6
g6
g1
I6
tp4720
g17
tp4721
I0
s((g10
g10
g2
I7
tp4722
g36
tp4723
F-0.4516666666666669
s((g2
g2
g1
I11
tp4724
g17
tp4725
I0
s((g6
g6
g6
I10
tp4726
g36
tp4727
I0
s((g2
g2
g10
I2
tp4728
g4
tp4729
F-4.270704828431887
s((g10
g2
g1
I3
tp4730
g14
tp4731
I0
s((g6
g10
g1
I11
tp4732
g14
tp4733
I0
s((g6
g1
g10
I6
tp4734
g14
tp4735
I0
s((g10
g10
g10
I4
tp4736
g36
tp4737
F0.0
s((g1
g2
g1
I10
tp4738
g36
tp4739
I0
s((g2
g6
g2
I7
tp4740
g4
tp4741
F1.1555000000000002
s((g10
g6
g10
I3
tp4742
g4
tp4743
I0
s((g2
g6
g1
I5
tp4744
g14
tp4745
I0
s((g6
g1
g2
I11
tp4746
g4
tp4747
I0
s((g10
g1
g2
I11
tp4748
g17
tp4749
I0
s((g6
g6
g10
I3
tp4750
g8
tp4751
I0
s((g1
g2
g1
I2
tp4752
g8
tp4753
I0
s((g1
g1
g1
I10
tp4754
g36
tp4755
I0
s((g10
g1
g10
I7
tp4756
g36
tp4757
I0
s((g10
g6
g2
I7
tp4758
g36
tp4759
I0
s((g10
g10
g1
I2
tp4760
g17
tp4761
I0
s((g10
g2
g10
I3
tp4762
g14
tp4763
F1281.5144131778177
s((g6
g1
g10
I4
tp4764
g36
tp4765
I0
s((g1
g10
g6
I8
tp4766
g4
tp4767
I0
s((g1
g1
g10
I10
tp4768
g36
tp4769
I0
s((g1
g10
g2
I8
tp4770
g17
tp4771
I0
s((g2
g6
g2
I4
tp4772
g17
tp4773
I0
s((g6
g6
g6
I10
tp4774
g8
tp4775
I0
s((g2
g6
g2
I11
tp4776
g17
tp4777
I0
s((g2
g6
g6
I9
tp4778
g17
tp4779
F0.0
s((g6
g6
g6
I7
tp4780
g14
tp4781
F880.661099104329
s((g10
g1
g10
I5
tp4782
g4
tp4783
I0
s((g6
g2
g2
I3
tp4784
g36
tp4785
I0
s((g1
g2
g10
I1
tp4786
g17
tp4787
I0
s((g10
g10
g10
I9
tp4788
g17
tp4789
F110.10000000000001
s((g2
g10
g10
I6
tp4790
g8
tp4791
I0
s((g6
g10
g1
I8
tp4792
g4
tp4793
I0
s((g6
g2
g6
I11
tp4794
g36
tp4795
I0
s((g2
g1
g1
I9
tp4796
g4
tp4797
I0
s((g10
g2
g2
I4
tp4798
g36
tp4799
F-1.436
s((g10
g10
g10
I11
tp4800
g4
tp4801
I0
s((g2
g6
g1
I11
tp4802
g8
tp4803
I0
s((g10
g2
g2
I11
tp4804
g36
tp4805
I0
s((g6
g10
g2
I2
tp4806
g36
tp4807
I0
s((g10
g10
g1
I11
tp4808
g4
tp4809
I0
s((g10
g10
g1
I6
tp4810
g14
tp4811
I0
s((g1
g6
g6
I4
tp4812
g8
tp4813
I0
s((g6
g6
g2
I3
tp4814
g17
tp4815
F0.6334478605
s((g6
g1
g10
I3
tp4816
g8
tp4817
I0
s((g10
g2
g2
I7
tp4818
g17
tp4819
F-0.95
s((g1
g1
g1
I11
tp4820
g8
tp4821
I0
s((g2
g10
g6
I1
tp4822
g14
tp4823
I0
s((g6
g10
g2
I11
tp4824
g8
tp4825
I0
s((g6
g10
g1
I7
tp4826
g36
tp4827
I0
s((g10
g2
g10
I9
tp4828
g36
tp4829
I0
s((g10
g10
g10
I3
tp4830
g17
tp4831
F0.0
s((g6
g6
g2
I10
tp4832
g8
tp4833
F1522.85
s((g2
g6
g6
I6
tp4834
g36
tp4835
F0.0
s((g2
g1
g2
I11
tp4836
g4
tp4837
I0
s((g10
g1
g6
I8
tp4838
g8
tp4839
I0
s((g10
g1
g1
I7
tp4840
g14
tp4841
I0
s((g1
g6
g2
I4
tp4842
g36
tp4843
I0
s((g2
g6
g1
I3
tp4844
g17
tp4845
I0
s((g6
g2
g6
I7
tp4846
g4
tp4847
I0
s((g6
g6
g1
I2
tp4848
g36
tp4849
I0
s((g1
g2
g10
I4
tp4850
g14
tp4851
I0
s((g2
g1
g6
I10
tp4852
g36
tp4853
I0
s((g1
g10
g1
I1
tp4854
g4
tp4855
I0
s((g6
g2
g2
I5
tp4856
g14
tp4857
F10969.676281706385
s((g1
g6
g2
I7
tp4858
g17
tp4859
I0
s((g1
g6
g2
I8
tp4860
g17
tp4861
I0
s((g1
g6
g1
I3
tp4862
g36
tp4863
I0
s((g10
g2
g10
I9
tp4864
g8
tp4865
F59.550000000000004
s((g1
g6
g6
I10
tp4866
g8
tp4867
I0
s((g6
g6
g10
I1
tp4868
g36
tp4869
I0
s((g6
g10
g6
I4
tp4870
g4
tp4871
I0
s((g6
g10
g6
I6
tp4872
g4
tp4873
I0
s((g2
g1
g1
I11
tp4874
g17
tp4875
I0
s((g6
g2
g2
I4
tp4876
g36
tp4877
F-2.984000000000001
s((g1
g6
g1
I6
tp4878
g4
tp4879
I0
s((g1
g10
g6
I8
tp4880
g8
tp4881
I0
s((g6
g2
g10
I7
tp4882
g17
tp4883
I0
s((g10
g2
g2
I8
tp4884
g4
tp4885
F68.19320000000002
s((g6
g2
g10
I4
tp4886
g17
tp4887
F-0.9950000000000001
s((g2
g1
g1
I2
tp4888
g14
tp4889
I0
s((g2
g1
g6
I11
tp4890
g36
tp4891
I0
s((g2
g10
g10
I7
tp4892
g4
tp4893
F0.125
s((g1
g2
g2
I11
tp4894
g36
tp4895
I0
s((g10
g1
g2
I1
tp4896
g8
tp4897
I0
s((g1
g6
g2
I10
tp4898
g17
tp4899
I0
s((g1
g10
g1
I8
tp4900
g36
tp4901
I0
s((g6
g10
g2
I4
tp4902
g36
tp4903
F-0.55
s((g1
g10
g6
I8
tp4904
g17
tp4905
I0
s((g6
g1
g10
I6
tp4906
g8
tp4907
I0
s((g2
g1
g6
I9
tp4908
g36
tp4909
I0
s((g10
g1
g6
I4
tp4910
g14
tp4911
I0
s((g2
g6
g10
I6
tp4912
g36
tp4913
I0
s((g2
g10
g6
I5
tp4914
g36
tp4915
I0
s((g10
g1
g2
I6
tp4916
g8
tp4917
I0
s((g1
g10
g10
I4
tp4918
g8
tp4919
I0
s((g1
g10
g2
I5
tp4920
g14
tp4921
I0
s((g2
g6
g10
I4
tp4922
g14
tp4923
F480.55101931747794
s((g10
g2
g1
I9
tp4924
g36
tp4925
I0
s((g1
g2
g1
I7
tp4926
g36
tp4927
I0
s((g2
g10
g1
I3
tp4928
g17
tp4929
I0
s((g2
g1
g1
I8
tp4930
g17
tp4931
I0
s((g2
g10
g2
I6
tp4932
g8
tp4933
F0.6310950000000001
s((g6
g1
g2
I9
tp4934
g36
tp4935
I0
s((g2
g2
g1
I5
tp4936
g14
tp4937
I0
s((g1
g2
g1
I4
tp4938
g14
tp4939
I0
s((g2
g10
g1
I7
tp4940
g36
tp4941
I0
s((g1
g10
g6
I10
tp4942
g14
tp4943
I0
s((g2
g6
g6
I2
tp4944
g14
tp4945
F1023.7105114669589
s((g1
g10
g1
I7
tp4946
g8
tp4947
I0
s((g2
g2
g6
I2
tp4948
g17
tp4949
F-1.7195
s((g6
g1
g10
I11
tp4950
g4
tp4951
I0
s((g10
g2
g10
I4
tp4952
g4
tp4953
F-0.5711245
s((g6
g6
g2
I11
tp4954
g36
tp4955
I0
s((g10
g10
g6
I3
tp4956
g8
tp4957
I0
s((g2
g10
g2
I5
tp4958
g8
tp4959
F0.32805
s((g2
g2
g2
I4
tp4960
g4
tp4961
F-5.0581916636151645
s((g1
g10
g10
I10
tp4962
g8
tp4963
I0
s((g1
g6
g6
I3
tp4964
g36
tp4965
I0
s((g2
g2
g2
I8
tp4966
g14
tp4967
F13155.867079197915
s((g1
g2
g6
I2
tp4968
g17
tp4969
I0
s((g1
g2
g6
I11
tp4970
g17
tp4971
I0
s((g6
g10
g1
I9
tp4972
g17
tp4973
I0
s((g1
g1
g10
I9
tp4974
g8
tp4975
I0
s((g2
g6
g10
I9
tp4976
g4
tp4977
I0
s((g10
g1
g6
I7
tp4978
g4
tp4979
I0
s((g2
g1
g1
I6
tp4980
g4
tp4981
I0
s((g2
g10
g10
I9
tp4982
g36
tp4983
F40.225
s((g1
g10
g6
I4
tp4984
g4
tp4985
I0
s((g1
g6
g10
I10
tp4986
g8
tp4987
I0
s((g10
g2
g1
I11
tp4988
g14
tp4989
I0
s((g2
g6
g10
I8
tp4990
g8
tp4991
I0
s((g6
g6
g6
I11
tp4992
g14
tp4993
I0
s((g6
g6
g1
I3
tp4994
g4
tp4995
I0
s((g1
g2
g10
I4
tp4996
g8
tp4997
I0
s((g6
g6
g1
I1
tp4998
g4
tp4999
I0
s((g1
g10
g2
I8
tp5000
g4
tp5001
I0
s((g2
g1
g10
I2
tp5002
g17
tp5003
I0
s((g1
g1
g2
I4
tp5004
g17
tp5005
I0
s((g2
g6
g2
I10
tp5006
g17
tp5007
I0
s((g10
g2
g2
I4
tp5008
g8
tp5009
F-1.3224755
s((g1
g6
g6
I1
tp5010
g14
tp5011
I0
s((g1
g1
g2
I4
tp5012
g4
tp5013
I0
s((g1
g2
g2
I11
tp5014
g17
tp5015
I0
s((g1
g10
g10
I8
tp5016
g4
tp5017
I0
s((g6
g10
g2
I3
tp5018
g4
tp5019
I0
s((g1
g2
g6
I8
tp5020
g17
tp5021
I0
s((g2
g10
g6
I5
tp5022
g4
tp5023
I0
s((g10
g1
g2
I4
tp5024
g4
tp5025
I0
s((g2
g10
g10
I4
tp5026
g14
tp5027
F1981.245791296415
s((g6
g1
g6
I5
tp5028
g4
tp5029
I0
s((g6
g10
g1
I8
tp5030
g36
tp5031
I0
s((g1
g2
g6
I7
tp5032
g8
tp5033
I0
s((g10
g1
g6
I11
tp5034
g8
tp5035
I0
s((g1
g10
g1
I7
tp5036
g4
tp5037
I0
s((g2
g6
g10
I2
tp5038
g17
tp5039
I0
s((g10
g2
g10
I1
tp5040
g36
tp5041
I0
s((g10
g1
g1
I3
tp5042
g4
tp5043
I0
s((g2
g2
g2
I1
tp5044
g14
tp5045
I0
s((g6
g2
g1
I2
tp5046
g36
tp5047
I0
s((g6
g2
g10
I11
tp5048
g8
tp5049
I0
s((g6
g2
g6
I5
tp5050
g14
tp5051
F1630.0788351402332
s((g6
g2
g2
I11
tp5052
g8
tp5053
I0
s((g2
g2
g10
I1
tp5054
g4
tp5055
I0
s((g6
g2
g6
I3
tp5056
g8
tp5057
I0
s((g6
g1
g2
I9
tp5058
g4
tp5059
I0
s((g1
g2
g1
I3
tp5060
g4
tp5061
I0
s((g2
g1
g2
I5
tp5062
g4
tp5063
I0
s((g1
g2
g6
I6
tp5064
g36
tp5065
I0
s((g2
g1
g2
I7
tp5066
g4
tp5067
I0
s((g1
g1
g6
I10
tp5068
g17
tp5069
I0
s((g6
g2
g2
I7
tp5070
g4
tp5071
F34.536145849880015
s((g6
g2
g2
I4
tp5072
g14
tp5073
F10113.857545887255
s((g2
g10
g10
I11
tp5074
g17
tp5075
I0
s((g2
g10
g6
I1
tp5076
g4
tp5077
I0
s((g6
g1
g10
I11
tp5078
g36
tp5079
I0
s((g2
g10
g1
I2
tp5080
g36
tp5081
I0
s((g1
g2
g1
I5
tp5082
g14
tp5083
I0
s((g1
g6
g6
I4
tp5084
g36
tp5085
I0
s((g6
g2
g1
I4
tp5086
g4
tp5087
I0
s((g2
g10
g6
I3
tp5088
g4
tp5089
I0
s((g6
g10
g1
I1
tp5090
g17
tp5091
I0
s((g1
g6
g10
I7
tp5092
g14
tp5093
I0
s((g1
g10
g1
I6
tp5094
g17
tp5095
I0
s((g6
g2
g6
I2
tp5096
g36
tp5097
I0
s((g2
g2
g6
I8
tp5098
g36
tp5099
F-0.5
s((g1
g10
g1
I10
tp5100
g17
tp5101
I0
s((g10
g10
g1
I11
tp5102
g8
tp5103
I0
s((g10
g1
g6
I10
tp5104
g36
tp5105
I0
s((g6
g2
g6
I11
tp5106
g17
tp5107
I0
s((g1
g1
g10
I11
tp5108
g36
tp5109
I0
s((g6
g10
g10
I4
tp5110
g36
tp5111
I0
s((g10
g10
g10
I2
tp5112
g4
tp5113
F0.0
s((g1
g1
g2
I6
tp5114
g17
tp5115
I0
s((g2
g10
g2
I2
tp5116
g17
tp5117
F0.47676337505
s((g2
g6
g6
I6
tp5118
g8
tp5119
I0
s((g6
g10
g10
I1
tp5120
g17
tp5121
I0
s((g2
g6
g2
I11
tp5122
g4
tp5123
I0
s((g2
g10
g6
I9
tp5124
g17
tp5125
I0
s((g10
g1
g6
I7
tp5126
g36
tp5127
I0
s((g2
g10
g1
I2
tp5128
g8
tp5129
I0
s((g2
g2
g2
I6
tp5130
g4
tp5131
F28.706701330791645
s((g10
g6
g10
I3
tp5132
g36
tp5133
I0
s((g6
g6
g2
I11
tp5134
g17
tp5135
I0
s((g1
g1
g6
I11
tp5136
g4
tp5137
I0
s((g1
g10
g1
I2
tp5138
g17
tp5139
I0
s((g6
g6
g10
I7
tp5140
g17
tp5141
F-0.2216666666666668
s((g2
g6
g2
I2
tp5142
g17
tp5143
F-0.8180295124190002
s((g2
g2
g10
I11
tp5144
g17
tp5145
I0
s((g2
g10
g1
I3
tp5146
g14
tp5147
I0
s((g2
g2
g2
I3
tp5148
g14
tp5149
F11035.914707088523
s((g2
g10
g6
I11
tp5150
g17
tp5151
I0
s((g6
g10
g10
I5
tp5152
g8
tp5153
I0
s((g2
g6
g1
I1
tp5154
g8
tp5155
I0
s((g2
g1
g2
I9
tp5156
g14
tp5157
I0
s((g2
g1
g10
I1
tp5158
g14
tp5159
I0
s((g10
g6
g10
I2
tp5160
g36
tp5161
I0
s((g2
g6
g1
I10
tp5162
g36
tp5163
I0
s((g10
g10
g2
I8
tp5164
g36
tp5165
F39.972578333333345
s((g6
g10
g2
I1
tp5166
g8
tp5167
I0
s((g6
g10
g6
I2
tp5168
g36
tp5169
I0
s((g6
g2
g1
I4
tp5170
g17
tp5171
I0
s((g10
g6
g10
I7
tp5172
g8
tp5173
F0.5
s((g1
g6
g1
I11
tp5174
g4
tp5175
I0
s((g10
g1
g2
I1
tp5176
g17
tp5177
I0
s((g1
g10
g10
I11
tp5178
g17
tp5179
I0
s((g6
g1
g1
I3
tp5180
g8
tp5181
I0
s((g1
g1
g10
I3
tp5182
g17
tp5183
I0
s((g6
g1
g2
I4
tp5184
g4
tp5185
I0
s((g6
g2
g1
I1
tp5186
g17
tp5187
I0
s((g6
g2
g1
I9
tp5188
g36
tp5189
I0
s((g10
g10
g1
I6
tp5190
g4
tp5191
I0
s((g6
g2
g2
I1
tp5192
g36
tp5193
I0
s((g1
g10
g10
I9
tp5194
g36
tp5195
I0
s((g6
g1
g2
I1
tp5196
g4
tp5197
I0
s((g6
g1
g10
I2
tp5198
g36
tp5199
I0
s((g2
g1
g2
I1
tp5200
g14
tp5201
I0
s((g6
g1
g1
I9
tp5202
g14
tp5203
I0
s((g10
g2
g10
I11
tp5204
g36
tp5205
I0
s((g2
g1
g10
I11
tp5206
g4
tp5207
I0
s((g2
g2
g2
I8
tp5208
g4
tp5209
F1593.8661022625763
s((g6
g6
g6
I11
tp5210
g36
tp5211
I0
s((g10
g1
g10
I5
tp5212
g14
tp5213
I0
s((g6
g1
g2
I7
tp5214
g17
tp5215
I0
s((g10
g1
g1
I3
tp5216
g17
tp5217
I0
s((g10
g6
g1
I6
tp5218
g36
tp5219
I0
s((g2
g1
g6
I4
tp5220
g17
tp5221
I0
s((g6
g1
g1
I1
tp5222
g8
tp5223
I0
s((g6
g1
g6
I5
tp5224
g17
tp5225
I0
s((g2
g2
g2
I9
tp5226
g4
tp5227
F4564.388353365525
s((g6
g10
g10
I8
tp5228
g17
tp5229
I0
s((g6
g10
g10
I11
tp5230
g17
tp5231
I0
s((g1
g6
g2
I1
tp5232
g17
tp5233
I0
s((g1
g2
g10
I10
tp5234
g8
tp5235
I0
s((g2
g1
g1
I10
tp5236
g4
tp5237
I0
s((g2
g2
g10
I6
tp5238
g14
tp5239
F9942.080161259184
s((g10
g2
g10
I2
tp5240
g17
tp5241
F-0.95
s((g6
g6
g10
I3
tp5242
g14
tp5243
I0
s((g1
g6
g6
I7
tp5244
g4
tp5245
I0
s((g2
g2
g6
I11
tp5246
g14
tp5247
I0
s((g6
g2
g10
I11
tp5248
g4
tp5249
I0
s((g6
g2
g2
I9
tp5250
g4
tp5251
F1729.866147515549
s((g1
g6
g6
I11
tp5252
g14
tp5253
I0
s((g1
g10
g2
I1
tp5254
g14
tp5255
I0
s((g10
g6
g2
I11
tp5256
g17
tp5257
I0
s((g6
g6
g2
I5
tp5258
g8
tp5259
F0.55372175
s((g6
g6
g1
I2
tp5260
g17
tp5261
I0
s((g6
g6
g1
I1
tp5262
g17
tp5263
I0
s((g10
g1
g10
I6
tp5264
g17
tp5265
I0
s((g6
g10
g2
I10
tp5266
g8
tp5267
F1400.5
s((g10
g10
g2
I11
tp5268
g4
tp5269
I0
s((g2
g1
g6
I9
tp5270
g4
tp5271
I0
s((g10
g10
g10
I8
tp5272
g8
tp5273
F-0.016666666666666673
s((g2
g1
g1
I6
tp5274
g17
tp5275
I0
s((g10
g2
g1
I4
tp5276
g14
tp5277
I0
s((g2
g10
g2
I2
tp5278
g8
tp5279
I0
s((g2
g6
g2
I4
tp5280
g14
tp5281
F7718.131225143879
s((g1
g1
g10
I7
tp5282
g14
tp5283
I0
s((g2
g2
g2
I11
tp5284
g14
tp5285
I0
s((g1
g6
g10
I3
tp5286
g17
tp5287
I0
s((g2
g1
g6
I5
tp5288
g36
tp5289
I0
s((g1
g6
g10
I10
tp5290
g17
tp5291
I0
s((g10
g1
g1
I11
tp5292
g17
tp5293
I0
s((g2
g1
g1
I7
tp5294
g36
tp5295
I0
s((g1
g1
g2
I3
tp5296
g8
tp5297
I0
s((g6
g2
g1
I5
tp5298
g17
tp5299
I0
s((g6
g2
g1
I6
tp5300
g17
tp5301
I0
s((g6
g2
g2
I2
tp5302
g17
tp5303
F-1.617444587405
s((g2
g1
g6
I2
tp5304
g14
tp5305
I0
s((g10
g1
g10
I3
tp5306
g4
tp5307
I0
s((g6
g10
g1
I10
tp5308
g14
tp5309
I0
s((g2
g10
g6
I11
tp5310
g8
tp5311
I0
s((g1
g10
g2
I1
tp5312
g17
tp5313
I0
s((g1
g10
g10
I2
tp5314
g36
tp5315
I0
s((g2
g1
g10
I11
tp5316
g8
tp5317
I0
s((g6
g10
g2
I6
tp5318
g8
tp5319
F-0.5
s((g6
g6
g10
I2
tp5320
g4
tp5321
F-0.20004777511666677
s((g10
g2
g6
I10
tp5322
g36
tp5323
F401.5
s((g10
g2
g10
I2
tp5324
g14
tp5325
F3586.3398873002116
s((g10
g2
g6
I1
tp5326
g36
tp5327
I0
s((g6
g2
g1
I6
tp5328
g8
tp5329
I0
s((g6
g10
g2
I2
tp5330
g4
tp5331
F-0.22835909272404994
s((g10
g10
g2
I9
tp5332
g17
tp5333
F-0.4516666666666669
s((g6
g2
g6
I1
tp5334
g14
tp5335
I0
s((g2
g6
g6
I9
tp5336
g8
tp5337
F0.0
s((g1
g6
g10
I7
tp5338
g4
tp5339
I0
s((g6
g1
g1
I8
tp5340
g14
tp5341
I0
s((g6
g2
g1
I2
tp5342
g4
tp5343
I0
s((g10
g1
g2
I11
tp5344
g36
tp5345
I0
s((g1
g6
g6
I8
tp5346
g36
tp5347
I0
s((g6
g1
g10
I5
tp5348
g14
tp5349
I0
s((g6
g1
g6
I3
tp5350
g8
tp5351
I0
s((g2
g6
g6
I5
tp5352
g14
tp5353
F771.2262944160666
s((g10
g10
g2
I2
tp5354
g8
tp5355
F-0.9418047224884929
s((g10
g2
g6
I8
tp5356
g14
tp5357
I0
s((g1
g10
g2
I6
tp5358
g8
tp5359
I0
s((g1
g1
g2
I9
tp5360
g14
tp5361
I0
s((g1
g1
g1
I1
tp5362
g8
tp5363
I0
s((g10
g6
g1
I8
tp5364
g14
tp5365
I0
s((g1
g6
g1
I8
tp5366
g17
tp5367
I0
s((g1
g2
g1
I6
tp5368
g17
tp5369
I0
s((g10
g1
g1
I10
tp5370
g17
tp5371
I0
s((g2
g6
g6
I10
tp5372
g17
tp5373
F1401.0
s((g6
g6
g10
I1
tp5374
g8
tp5375
I0
s((g2
g1
g10
I11
tp5376
g36
tp5377
I0
s((g2
g2
g1
I4
tp5378
g8
tp5379
I0
s((g6
g6
g1
I6
tp5380
g36
tp5381
I0
s((g1
g1
g10
I3
tp5382
g36
tp5383
I0
s((g2
g10
g2
I8
tp5384
g8
tp5385
F80.97663257075388
s((g2
g2
g2
I6
tp5386
g17
tp5387
F-3.3657992918259216
s((g6
g1
g1
I4
tp5388
g36
tp5389
I0
s((g6
g1
g6
I11
tp5390
g14
tp5391
I0
s((g2
g10
g10
I11
tp5392
g36
tp5393
I0
s((g2
g2
g2
I1
tp5394
g17
tp5395
I0
s((g10
g6
g6
I7
tp5396
g8
tp5397
I0
s((g1
g10
g2
I2
tp5398
g36
tp5399
I0
s((g1
g1
g10
I2
tp5400
g17
tp5401
I0
s((g6
g6
g2
I10
tp5402
g36
tp5403
I0
s((g2
g1
g1
I5
tp5404
g8
tp5405
I0
s((g10
g2
g2
I11
tp5406
g8
tp5407
I0
s((g6
g10
g1
I9
tp5408
g8
tp5409
I0
s((g2
g1
g6
I4
tp5410
g14
tp5411
I0
s((g2
g1
g2
I1
tp5412
g36
tp5413
I0
s((g2
g2
g2
I1
tp5414
g8
tp5415
I0
s((g10
g2
g1
I8
tp5416
g17
tp5417
I0
s((g10
g6
g1
I3
tp5418
g14
tp5419
I0
s((g2
g2
g10
I5
tp5420
g36
tp5421
F-1.0
s((g10
g1
g10
I11
tp5422
g17
tp5423
I0
s((g1
g6
g10
I1
tp5424
g8
tp5425
I0
s((g2
g6
g2
I7
tp5426
g14
tp5427
F11808.974398602946
s((g6
g10
g10
I1
tp5428
g14
tp5429
I0
s((g1
g2
g10
I5
tp5430
g8
tp5431
I0
s((g1
g6
g10
I9
tp5432
g14
tp5433
I0
s((g2
g10
g1
I5
tp5434
g14
tp5435
I0
s((g2
g10
g2
I2
tp5436
g14
tp5437
F8033.856033925298
s((g10
g10
g2
I1
tp5438
g17
tp5439
I0
s((g2
g10
g2
I11
tp5440
g8
tp5441
I0
s((g6
g2
g1
I4
tp5442
g8
tp5443
I0
s((g2
g1
g10
I2
tp5444
g8
tp5445
I0
s((g1
g1
g10
I2
tp5446
g36
tp5447
I0
s((g2
g6
g10
I2
tp5448
g36
tp5449
I0
s((g1
g1
g6
I9
tp5450
g14
tp5451
I0
s((g10
g6
g6
I2
tp5452
g14
tp5453
I0
s((g1
g2
g10
I11
tp5454
g36
tp5455
I0
s((g10
g6
g2
I8
tp5456
g8
tp5457
I0
s((g2
g10
g2
I9
tp5458
g17
tp5459
F569.1271795
s((g10
g1
g2
I9
tp5460
g4
tp5461
I0
s((g10
g10
g6
I3
tp5462
g36
tp5463
F-0.05
s((g2
g6
g10
I3
tp5464
g36
tp5465
F-0.55
s((g2
g1
g2
I7
tp5466
g36
tp5467
I0
s((g2
g10
g6
I2
tp5468
g4
tp5469
F0.07267706625001742
s((g1
g6
g6
I11
tp5470
g4
tp5471
I0
s((g1
g6
g6
I9
tp5472
g4
tp5473
I0
s((g2
g10
g2
I10
tp5474
g4
tp5475
F5159.7585
s((g1
g10
g1
I5
tp5476
g4
tp5477
I0
s((g2
g10
g2
I9
tp5478
g8
tp5479
I0
s((g1
g10
g1
I3
tp5480
g8
tp5481
I0
s((g6
g6
g6
I3
tp5482
g4
tp5483
I0
s((g2
g2
g6
I10
tp5484
g8
tp5485
F2100.95
s((g1
g1
g2
I11
tp5486
g4
tp5487
I0
s((g2
g1
g6
I6
tp5488
g36
tp5489
I0
s((g10
g2
g6
I4
tp5490
g14
tp5491
I0
s((g6
g6
g6
I11
tp5492
g8
tp5493
I0
s((g10
g10
g10
I7
tp5494
g14
tp5495
F1323.4528916951124
s((g10
g1
g1
I9
tp5496
g4
tp5497
I0
s((g10
g1
g2
I11
tp5498
g4
tp5499
I0
s((g2
g10
g1
I7
tp5500
g4
tp5501
I0
s((g2
g10
g1
I5
tp5502
g4
tp5503
I0
s((g10
g1
g1
I11
tp5504
g36
tp5505
I0
s((g10
g6
g2
I4
tp5506
g8
tp5507
I0
s((g6
g6
g2
I1
tp5508
g8
tp5509
I0
s((g10
g1
g6
I8
tp5510
g14
tp5511
I0
s((g1
g10
g10
I2
tp5512
g14
tp5513
I0
s((g6
g10
g2
I1
tp5514
g14
tp5515
I0
s((g6
g1
g10
I9
tp5516
g36
tp5517
I0
s((g2
g10
g6
I3
tp5518
g14
tp5519
I0
s((g6
g10
g6
I1
tp5520
g4
tp5521
I0
s((g6
g1
g1
I5
tp5522
g8
tp5523
I0
s((g1
g6
g10
I1
tp5524
g4
tp5525
I0
s((g2
g2
g6
I10
tp5526
g4
tp5527
F800.5
s((g6
g10
g1
I4
tp5528
g14
tp5529
I0
s((g10
g1
g10
I11
tp5530
g4
tp5531
I0
s((g2
g6
g6
I10
tp5532
g36
tp5533
I0
s((g1
g10
g6
I9
tp5534
g14
tp5535
I0
s((g10
g10
g1
I4
tp5536
g14
tp5537
I0
s((g2
g6
g2
I11
tp5538
g14
tp5539
I0
s((g1
g10
g6
I3
tp5540
g36
tp5541
I0
s((g10
g1
g1
I1
tp5542
g36
tp5543
I0
s((g6
g10
g2
I6
tp5544
g36
tp5545
F-0.24196235004295122
s((g10
g2
g1
I3
tp5546
g8
tp5547
I0
s((g2
g2
g6
I10
tp5548
g14
tp5549
F10857.227398202027
s((g10
g1
g10
I2
tp5550
g8
tp5551
I0
s((g2
g6
g1
I8
tp5552
g14
tp5553
I0
s((g10
g1
g1
I5
tp5554
g17
tp5555
I0
s((g1
g1
g10
I5
tp5556
g14
tp5557
I0
s((g6
g10
g6
I3
tp5558
g17
tp5559
I0
s((g6
g10
g1
I9
tp5560
g14
tp5561
I0
s((g10
g2
g1
I7
tp5562
g14
tp5563
I0
s((g10
g10
g1
I7
tp5564
g36
tp5565
I0
s((g1
g2
g6
I4
tp5566
g14
tp5567
I0
s((g6
g6
g2
I6
tp5568
g17
tp5569
F0.915416
s((g6
g6
g10
I8
tp5570
g36
tp5571
I0
s((g6
g1
g10
I6
tp5572
g17
tp5573
I0
s((g10
g2
g1
I3
tp5574
g17
tp5575
I0
s((g10
g6
g10
I7
tp5576
g17
tp5577
F0.5
s((g6
g10
g6
I10
tp5578
g8
tp5579
I0
s((g10
g1
g1
I1
tp5580
g8
tp5581
I0
s((g6
g6
g1
I10
tp5582
g17
tp5583
I0
s((g10
g10
g10
I3
tp5584
g8
tp5585
I0
s((g6
g6
g6
I4
tp5586
g8
tp5587
I0
s((g2
g2
g1
I6
tp5588
g8
tp5589
I0
s((g2
g6
g6
I8
tp5590
g4
tp5591
F0.0
s((g6
g6
g1
I7
tp5592
g17
tp5593
I0
s((g10
g6
g10
I1
tp5594
g4
tp5595
I0
s((g10
g6
g2
I4
tp5596
g4
tp5597
I0
s((g1
g10
g10
I7
tp5598
g36
tp5599
I0
s((g10
g6
g10
I4
tp5600
g4
tp5601
I0
s((g6
g10
g2
I2
tp5602
g8
tp5603
F-1.4754882387216668
s((g2
g2
g10
I11
tp5604
g36
tp5605
I0
s((g1
g1
g2
I9
tp5606
g8
tp5607
I0
s((g2
g2
g2
I2
tp5608
g36
tp5609
F-5.751939863891062
s((g1
g10
g10
I3
tp5610
g17
tp5611
I0
s((g6
g6
g1
I8
tp5612
g17
tp5613
I0
s((g6
g10
g6
I9
tp5614
g4
tp5615
I0
s((g10
g2
g1
I10
tp5616
g36
tp5617
I0
s((g6
g2
g1
I2
tp5618
g8
tp5619
I0
s((g10
g1
g2
I4
tp5620
g17
tp5621
I0
s((g10
g10
g1
I8
tp5622
g17
tp5623
I0
s((g2
g2
g1
I10
tp5624
g14
tp5625
I0
s((g2
g2
g1
I9
tp5626
g14
tp5627
I0
s((g6
g6
g6
I9
tp5628
g17
tp5629
I0
s((g6
g10
g10
I1
tp5630
g36
tp5631
I0
s((g1
g1
g2
I3
tp5632
g36
tp5633
I0
s((g2
g6
g6
I3
tp5634
g17
tp5635
F-0.05500000000000001
s((g10
g6
g10
I2
tp5636
g8
tp5637
I0
s((g10
g2
g6
I5
tp5638
g36
tp5639
F0.5
s((g6
g1
g6
I2
tp5640
g14
tp5641
I0
s((g10
g10
g2
I6
tp5642
g8
tp5643
F-0.5066666666666669
s((g6
g1
g10
I8
tp5644
g14
tp5645
I0
s((g6
g6
g10
I3
tp5646
g17
tp5647
I0
s((g2
g10
g1
I8
tp5648
g8
tp5649
I0
s((g6
g2
g1
I8
tp5650
g17
tp5651
I0
s((g10
g2
g2
I5
tp5652
g36
tp5653
F-0.9995
s((g10
g2
g10
I9
tp5654
g14
tp5655
F7978.043621238377
s((g2
g10
g1
I2
tp5656
g17
tp5657
I0
s((g6
g6
g2
I5
tp5658
g17
tp5659
I0
s((g2
g6
g2
I8
tp5660
g8
tp5661
F4.697194450000001
s((g2
g10
g1
I11
tp5662
g17
tp5663
I0
s((g2
g2
g10
I5
tp5664
g17
tp5665
F-3.226192019550001
s((g1
g10
g2
I2
tp5666
g8
tp5667
I0
s((g1
g1
g6
I7
tp5668
g4
tp5669
I0
s((g6
g2
g6
I2
tp5670
g8
tp5671
I0
s((g10
g6
g2
I1
tp5672
g8
tp5673
I0
s((g2
g6
g10
I9
tp5674
g8
tp5675
I0
s((g10
g6
g6
I6
tp5676
g14
tp5677
I0
s((g6
g1
g1
I1
tp5678
g14
tp5679
I0
s((g1
g10
g6
I7
tp5680
g17
tp5681
I0
s((g10
g1
g10
I11
tp5682
g8
tp5683
I0
s((g6
g2
g1
I10
tp5684
g17
tp5685
I0
s((g1
g2
g10
I3
tp5686
g4
tp5687
I0
s((g6
g6
g1
I9
tp5688
g17
tp5689
I0
s((g1
g2
g2
I11
tp5690
g8
tp5691
I0
s((g2
g6
g6
I4
tp5692
g36
tp5693
F0.0
s((g1
g6
g10
I5
tp5694
g17
tp5695
I0
s((g10
g10
g6
I4
tp5696
g14
tp5697
F12.169140159496115
s((g2
g1
g6
I7
tp5698
g4
tp5699
I0
s((g2
g1
g6
I5
tp5700
g4
tp5701
I0
s((g2
g1
g10
I8
tp5702
g14
tp5703
I0
s((g10
g10
g6
I3
tp5704
g4
tp5705
I0
s((g2
g6
g1
I5
tp5706
g8
tp5707
I0
s((g1
g6
g1
I2
tp5708
g4
tp5709
I0
s((g2
g6
g10
I4
tp5710
g17
tp5711
I0
s((g10
g10
g6
I1
tp5712
g17
tp5713
I0
s((g1
g2
g6
I4
tp5714
g8
tp5715
I0
s((g10
g10
g10
I10
tp5716
g36
tp5717
F401.0
s((g1
g6
g1
I5
tp5718
g4
tp5719
I0
s((g6
g2
g10
I11
tp5720
g17
tp5721
I0
s((g1
g6
g10
I5
tp5722
g8
tp5723
I0
s((g6
g2
g10
I8
tp5724
g17
tp5725
I0
s((g10
g6
g6
I1
tp5726
g8
tp5727
I0
s((g2
g6
g10
I1
tp5728
g8
tp5729
I0
s((g2
g6
g10
I11
tp5730
g4
tp5731
I0
s((g6
g6
g1
I7
tp5732
g4
tp5733
I0
s((g2
g6
g1
I7
tp5734
g14
tp5735
I0
s((g6
g10
g10
I6
tp5736
g17
tp5737
I0
s((g10
g1
g2
I9
tp5738
g36
tp5739
I0
s((g1
g10
g6
I10
tp5740
g8
tp5741
I0
s((g2
g6
g10
I8
tp5742
g36
tp5743
I0
s((g1
g1
g2
I7
tp5744
g14
tp5745
I0
s((g2
g2
g2
I11
tp5746
g8
tp5747
I0
s((g2
g1
g1
I3
tp5748
g8
tp5749
I0
s((g10
g10
g6
I10
tp5750
g14
tp5751
F3472.71
s((g6
g10
g1
I6
tp5752
g14
tp5753
I0
s((g2
g2
g1
I2
tp5754
g36
tp5755
I0
s((g1
g1
g1
I4
tp5756
g17
tp5757
I0
s((g10
g10
g1
I8
tp5758
g36
tp5759
I0
s((g1
g1
g2
I11
tp5760
g8
tp5761
I0
s((g10
g2
g10
I3
tp5762
g17
tp5763
F-1.99452295
s((g6
g6
g10
I8
tp5764
g14
tp5765
F1255.1172962046567
s((g1
g2
g1
I8
tp5766
g17
tp5767
I0
s((g2
g1
g6
I4
tp5768
g36
tp5769
I0
s((g1
g2
g6
I8
tp5770
g36
tp5771
I0
s((g2
g2
g10
I9
tp5772
g17
tp5773
F1067.694001653915
s((g10
g6
g10
I1
tp5774
g36
tp5775
I0
s((g10
g1
g1
I5
tp5776
g4
tp5777
I0
s((g2
g6
g6
I7
tp5778
g4
tp5779
F1.1555000000000002
s((g10
g1
g1
I7
tp5780
g4
tp5781
I0
s((g10
g2
g6
I5
tp5782
g8
tp5783
I0
s((g6
g2
g1
I6
tp5784
g36
tp5785
I0
s((g2
g10
g2
I10
tp5786
g14
tp5787
F13890.369071645448
s((g6
g2
g6
I4
tp5788
g36
tp5789
I0
s((g1
g2
g1
I9
tp5790
g4
tp5791
I0
s((g6
g1
g1
I5
tp5792
g36
tp5793
I0
s((g1
g1
g2
I5
tp5794
g8
tp5795
I0
s((g2
g10
g10
I8
tp5796
g8
tp5797
I0
s((g6
g2
g6
I11
tp5798
g14
tp5799
I0
s((g1
g6
g10
I10
tp5800
g36
tp5801
I0
s((g6
g6
g2
I5
tp5802
g36
tp5803
F0.36450000000000005
s((g6
g2
g1
I11
tp5804
g17
tp5805
I0
s((g10
g10
g10
I2
tp5806
g8
tp5807
I0
s((g6
g6
g1
I6
tp5808
g14
tp5809
I0
s((g10
g1
g10
I7
tp5810
g4
tp5811
I0
s((g2
g6
g1
I2
tp5812
g8
tp5813
I0
s((g1
g2
g6
I3
tp5814
g36
tp5815
I0
s((g1
g6
g10
I1
tp5816
g17
tp5817
I0
s((g1
g10
g2
I11
tp5818
g17
tp5819
I0
s((g10
g2
g10
I10
tp5820
g4
tp5821
F800.5
s((g1
g10
g2
I10
tp5822
g17
tp5823
I0
s((g2
g2
g2
I2
tp5824
g14
tp5825
F10250.238997720444
s((g10
g1
g10
I6
tp5826
g36
tp5827
I0
s((g6
g6
g2
I7
tp5828
g4
tp5829
F25.518283860000004
s((g6
g10
g1
I6
tp5830
g17
tp5831
I0
s((g2
g6
g2
I8
tp5832
g36
tp5833
I0
s((g6
g10
g1
I5
tp5834
g17
tp5835
I0
s((g2
g6
g10
I3
tp5836
g4
tp5837
F-0.7039524880000001
s((g10
g1
g2
I5
tp5838
g17
tp5839
I0
s((g10
g1
g2
I4
tp5840
g36
tp5841
I0
s((g1
g1
g10
I6
tp5842
g14
tp5843
I0
s((g2
g10
g10
I6
tp5844
g36
tp5845
I0
s((g2
g1
g1
I2
tp5846
g8
tp5847
I0
s((g10
g6
g6
I5
tp5848
g4
tp5849
I0
s((g2
g10
g10
I4
tp5850
g8
tp5851
F0.138
s((g1
g10
g10
I7
tp5852
g8
tp5853
I0
s((g10
g1
g2
I6
tp5854
g17
tp5855
I0
s((g6
g1
g1
I9
tp5856
g4
tp5857
I0
s((g10
g2
g10
I6
tp5858
g17
tp5859
I0
s((g10
g6
g10
I9
tp5860
g14
tp5861
F4903.73709144895
s((g2
g1
g2
I5
tp5862
g14
tp5863
I0
s((g2
g10
g1
I7
tp5864
g8
tp5865
I0
s((g1
g6
g1
I1
tp5866
g14
tp5867
I0
s((g6
g2
g10
I1
tp5868
g36
tp5869
I0
s((g10
g2
g2
I2
tp5870
g17
tp5871
F-2.036409422654592
s((g6
g10
g1
I7
tp5872
g4
tp5873
I0
s((g10
g10
g1
I1
tp5874
g4
tp5875
I0
s((g6
g6
g10
I11
tp5876
g8
tp5877
I0
s((g2
g1
g10
I8
tp5878
g17
tp5879
I0
s((g6
g1
g6
I8
tp5880
g36
tp5881
I0
s((g1
g2
g2
I8
tp5882
g8
tp5883
I0
s((g10
g2
g1
I2
tp5884
g36
tp5885
I0
s((g1
g6
g1
I8
tp5886
g8
tp5887
I0
s((g1
g6
g10
I5
tp5888
g14
tp5889
I0
s((g6
g10
g2
I5
tp5890
g14
tp5891
F1632.5612432335108
s((g1
g2
g6
I1
tp5892
g36
tp5893
I0
s((g10
g10
g2
I2
tp5894
g36
tp5895
F-0.7099777043918618
s((g1
g2
g2
I1
tp5896
g17
tp5897
I0
s((g2
g10
g1
I1
tp5898
g14
tp5899
I0
s((g10
g6
g6
I6
tp5900
g17
tp5901
I0
s((g2
g6
g6
I4
tp5902
g4
tp5903
F0.06291262350000001
s((g1
g2
g10
I8
tp5904
g8
tp5905
I0
s((g2
g1
g6
I8
tp5906
g4
tp5907
I0
s((g10
g6
g6
I7
tp5908
g17
tp5909
I0
s((g1
g6
g10
I1
tp5910
g36
tp5911
I0
s((g10
g6
g6
I3
tp5912
g8
tp5913
I0
s((g1
g1
g2
I7
tp5914
g8
tp5915
I0
s((g2
g10
g10
I3
tp5916
g8
tp5917
F0.07468333333333334
s((g1
g10
g1
I6
tp5918
g36
tp5919
I0
s((g2
g2
g6
I1
tp5920
g36
tp5921
I0
s((g2
g6
g6
I6
tp5922
g14
tp5923
F781.4969585320571
s((g10
g6
g6
I4
tp5924
g14
tp5925
I0
s((g10
g2
g1
I6
tp5926
g8
tp5927
I0
s((g10
g2
g6
I9
tp5928
g14
tp5929
F0.5
s((g6
g1
g10
I1
tp5930
g8
tp5931
I0
s((g2
g6
g10
I10
tp5932
g17
tp5933
I0
s((g2
g1
g10
I8
tp5934
g4
tp5935
I0
s((g1
g2
g6
I11
tp5936
g8
tp5937
I0
s((g10
g1
g6
I7
tp5938
g8
tp5939
I0
s((g2
g2
g6
I3
tp5940
g4
tp5941
F-1.09651114765
s((g1
g6
g10
I10
tp5942
g4
tp5943
I0
s((g10
g2
g6
I3
tp5944
g8
tp5945
I0
s((g2
g6
g2
I2
tp5946
g36
tp5947
F0.0
s((g6
g1
g6
I2
tp5948
g17
tp5949
I0
s((g1
g10
g6
I3
tp5950
g4
tp5951
I0
s((g10
g6
g6
I11
tp5952
g36
tp5953
I0
s((g6
g2
g1
I11
tp5954
g4
tp5955
I0
s((g1
g2
g10
I11
tp5956
g17
tp5957
I0
s((g10
g1
g6
I4
tp5958
g36
tp5959
I0
s((g1
g10
g6
I6
tp5960
g4
tp5961
I0
s((g6
g1
g2
I8
tp5962
g14
tp5963
I0
s((g10
g2
g2
I7
tp5964
g8
tp5965
F-0.05621549999999989
s((g6
g2
g6
I9
tp5966
g17
tp5967
I0
s((g10
g2
g6
I7
tp5968
g8
tp5969
I0
s((g10
g10
g10
I3
tp5970
g36
tp5971
F0.0
s((g6
g2
g1
I1
tp5972
g4
tp5973
I0
s((g10
g10
g6
I6
tp5974
g36
tp5975
I0
s((g10
g6
g10
I6
tp5976
g17
tp5977
F0.95
s((g2
g10
g6
I6
tp5978
g14
tp5979
F2634.274142150815
s((g1
g10
g2
I10
tp5980
g4
tp5981
I0
s((g1
g1
g2
I11
tp5982
g14
tp5983
I0
s((g2
g10
g10
I2
tp5984
g17
tp5985
F0.33875
s((g10
g6
g2
I4
tp5986
g36
tp5987
I0
s((g10
g10
g2
I5
tp5988
g14
tp5989
F11291.73238841975
s((g10
g1
g10
I7
tp5990
g17
tp5991
I0
s((g1
g10
g6
I5
tp5992
g14
tp5993
I0
s((g10
g6
g1
I3
tp5994
g17
tp5995
I0
s((g2
g2
g10
I9
tp5996
g8
tp5997
F-2.04755
s((g2
g1
g2
I6
tp5998
g14
tp5999
I0
s((g10
g6
g2
I5
tp6000
g36
tp6001
I0
s((g2
g6
g1
I4
tp6002
g14
tp6003
I0
s((g2
g10
g2
I1
tp6004
g14
tp6005
I0
s((g2
g1
g10
I6
tp6006
g4
tp6007
I0
s((g10
g6
g6
I1
tp6008
g36
tp6009
I0
s((g2
g10
g10
I1
tp6010
g36
tp6011
I0
s((g6
g10
g10
I6
tp6012
g4
tp6013
I0
s((g6
g6
g1
I9
tp6014
g14
tp6015
I0
s((g6
g2
g6
I9
tp6016
g36
tp6017
I0
s((g6
g2
g1
I2
tp6018
g17
tp6019
I0
s((g10
g10
g2
I8
tp6020
g14
tp6021
F12092.87586631576
s((g10
g10
g10
I11
tp6022
g17
tp6023
I0
s((g10
g1
g1
I11
tp6024
g4
tp6025
I0
s((g2
g10
g2
I8
tp6026
g17
tp6027
F99.5428854635
s((g1
g1
g6
I10
tp6028
g8
tp6029
I0
s((g6
g1
g10
I1
tp6030
g4
tp6031
I0
s((g2
g2
g6
I10
tp6032
g36
tp6033
I0
s((g2
g1
g10
I8
tp6034
g8
tp6035
I0
s((g1
g10
g10
I9
tp6036
g14
tp6037
I0
s((g1
g6
g1
I1
tp6038
g8
tp6039
I0
s((g2
g10
g1
I9
tp6040
g36
tp6041
I0
s((g2
g10
g6
I4
tp6042
g14
tp6043
F410.3640827759212
s((g6
g2
g2
I7
tp6044
g14
tp6045
F11816.609106691121
s((g6
g6
g2
I4
tp6046
g14
tp6047
F9529.103560205773
s((g6
g6
g2
I9
tp6048
g4
tp6049
F402.125755
s((g1
g6
g6
I2
tp6050
g36
tp6051
I0
s((g1
g6
g1
I7
tp6052
g4
tp6053
I0
s((g6
g10
g2
I6
tp6054
g4
tp6055
F-0.55
s((g10
g2
g10
I6
tp6056
g4
tp6057
F-0.3313805929999998
s((g2
g6
g1
I2
tp6058
g36
tp6059
I0
s((g6
g2
g1
I6
tp6060
g4
tp6061
I0
s((g2
g2
g10
I7
tp6062
g36
tp6063
F-1.8637796745499997
s((g6
g1
g6
I10
tp6064
g17
tp6065
I0
s((g6
g1
g6
I9
tp6066
g17
tp6067
I0
s((g10
g10
g2
I7
tp6068
g8
tp6069
F0.4107573333333333
s((g10
g2
g2
I7
tp6070
g14
tp6071
F12169.242423755964
s((g6
g6
g6
I4
tp6072
g14
tp6073
F1544.0473238546415
s((g1
g6
g6
I8
tp6074
g17
tp6075
I0
s((g2
g10
g10
I10
tp6076
g36
tp6077
F1862.1375
s((g1
g2
g6
I1
tp6078
g14
tp6079
I0
s((g10
g1
g1
I4
tp6080
g14
tp6081
I0
s((g10
g1
g6
I8
tp6082
g17
tp6083
I0
s((g1
g2
g1
I2
tp6084
g14
tp6085
I0
s((g6
g1
g2
I5
tp6086
g8
tp6087
I0
s((g1
g10
g10
I6
tp6088
g4
tp6089
I0
s((g6
g2
g2
I3
tp6090
g4
tp6091
F-1.471335288279826
s((g10
g1
g6
I11
tp6092
g17
tp6093
I0
s((g1
g1
g6
I4
tp6094
g4
tp6095
I0
s((g2
g10
g2
I7
tp6096
g8
tp6097
F1.31095
s((g1
g1
g10
I7
tp6098
g36
tp6099
I0
s((g1
g6
g2
I11
tp6100
g4
tp6101
I0
s((g2
g1
g1
I7
tp6102
g17
tp6103
I0
s((g10
g6
g6
I4
tp6104
g36
tp6105
I0
s((g6
g1
g1
I3
tp6106
g17
tp6107
I0
s((g6
g10
g2
I7
tp6108
g14
tp6109
F4613.513629661915
s((g2
g1
g10
I5
tp6110
g14
tp6111
I0
s((g1
g10
g1
I11
tp6112
g36
tp6113
I0
s((g6
g10
g10
I4
tp6114
g8
tp6115
I0
s((g10
g1
g6
I1
tp6116
g17
tp6117
I0
s((g6
g2
g10
I5
tp6118
g14
tp6119
F4202.467358456347
s((g6
g10
g6
I10
tp6120
g36
tp6121
I0
s((g2
g1
g6
I9
tp6122
g14
tp6123
I0
s((g1
g6
g6
I2
tp6124
g17
tp6125
I0
s((g2
g1
g10
I7
tp6126
g4
tp6127
I0
s((g6
g10
g6
I6
tp6128
g14
tp6129
F1645.407428450161
s((g2
g2
g2
I4
tp6130
g36
tp6131
F-4.192670136577054
s((g1
g1
g1
I7
tp6132
g4
tp6133
I0
s((g2
g10
g1
I2
tp6134
g4
tp6135
I0
s((g10
g6
g1
I1
tp6136
g8
tp6137
I0
s((g10
g2
g10
I8
tp6138
g14
tp6139
F5868.9306818702025
s((g2
g10
g1
I3
tp6140
g36
tp6141
I0
s((g6
g10
g10
I10
tp6142
g8
tp6143
F401.0
s((g2
g2
g6
I9
tp6144
g14
tp6145
F9699.196518884277
s((g10
g6
g1
I6
tp6146
g14
tp6147
I0
s((g1
g10
g6
I1
tp6148
g8
tp6149
I0
s((g2
g6
g6
I5
tp6150
g36
tp6151
F0.0
s((g10
g1
g1
I3
tp6152
g36
tp6153
I0
s((g6
g2
g1
I11
tp6154
g14
tp6155
I0
s((g1
g6
g10
I4
tp6156
g4
tp6157
I0
s((g2
g2
g6
I1
tp6158
g4
tp6159
I0
s((g1
g10
g10
I8
tp6160
g17
tp6161
I0
s((g1
g10
g1
I8
tp6162
g14
tp6163
I0
s((g2
g6
g6
I11
tp6164
g36
tp6165
I0
s((g1
g1
g2
I2
tp6166
g17
tp6167
I0
s((g2
g2
g1
I1
tp6168
g8
tp6169
I0
s((g2
g1
g6
I2
tp6170
g8
tp6171
I0
s((g1
g1
g1
I5
tp6172
g4
tp6173
I0
s((g6
g6
g10
I4
tp6174
g8
tp6175
I0
s((g1
g2
g6
I3
tp6176
g4
tp6177
I0
s((g6
g10
g1
I3
tp6178
g36
tp6179
I0
s((g1
g1
g6
I4
tp6180
g8
tp6181
I0
s((g1
g6
g1
I4
tp6182
g36
tp6183
I0
s((g10
g6
g2
I6
tp6184
g17
tp6185
I0
s((g10
g1
g2
I5
tp6186
g14
tp6187
I0
s((g2
g6
g6
I3
tp6188
g36
tp6189
F0.0
s((g2
g2
g10
I4
tp6190
g17
tp6191
F-3.497363557750001
s((g10
g6
g6
I1
tp6192
g14
tp6193
I0
s((g1
g1
g1
I7
tp6194
g17
tp6195
I0
s((g1
g2
g6
I10
tp6196
g36
tp6197
I0
s((g6
g2
g1
I3
tp6198
g17
tp6199
I0
s((g2
g10
g2
I7
tp6200
g4
tp6201
F42.90728393191716
s((g1
g2
g2
I10
tp6202
g17
tp6203
I0
s((g10
g1
g10
I4
tp6204
g36
tp6205
I0
s((g1
g2
g2
I4
tp6206
g14
tp6207
I0
s((g10
g10
g2
I7
tp6208
g14
tp6209
F11992.310080974063
s((g10
g6
g1
I4
tp6210
g14
tp6211
I0
s((g2
g2
g1
I8
tp6212
g8
tp6213
I0
s((g10
g6
g1
I10
tp6214
g36
tp6215
I0
s((g6
g1
g1
I8
tp6216
g17
tp6217
I0
s((g6
g2
g6
I8
tp6218
g4
tp6219
I0
s((g6
g10
g6
I2
tp6220
g17
tp6221
F0.10000000000000009
s((g6
g1
g1
I11
tp6222
g17
tp6223
I0
s((g2
g2
g1
I10
tp6224
g17
tp6225
I0
s((g10
g10
g6
I10
tp6226
g8
tp6227
I0
s((g6
g10
g10
I3
tp6228
g14
tp6229
F630.0442531907906
s((g6
g10
g10
I6
tp6230
g14
tp6231
I0
s((g1
g1
g1
I3
tp6232
g8
tp6233
I0
s((g10
g1
g1
I4
tp6234
g8
tp6235
I0
s((g10
g6
g1
I8
tp6236
g17
tp6237
I0
s((g6
g6
g1
I9
tp6238
g4
tp6239
I0
s((g2
g10
g2
I5
tp6240
g36
tp6241
F1.6912437933115687
s((g10
g6
g6
I5
tp6242
g14
tp6243
I0
s((g10
g1
g10
I8
tp6244
g4
tp6245
I0
s((g6
g1
g2
I11
tp6246
g14
tp6247
I0
s((g10
g6
g10
I6
tp6248
g4
tp6249
F1.1480175035000002
s((g1
g2
g1
I7
tp6250
g8
tp6251
I0
s((g6
g10
g6
I3
tp6252
g4
tp6253
I0
s((g6
g6
g2
I4
tp6254
g4
tp6255
I0
s((g10
g10
g1
I1
tp6256
g36
tp6257
I0
s((g2
g10
g1
I5
tp6258
g17
tp6259
I0
s((g2
g10
g6
I10
tp6260
g14
tp6261
F3398.71
s((g1
g1
g2
I8
tp6262
g8
tp6263
I0
s((g2
g2
g6
I9
tp6264
g4
tp6265
F-0.5
s((g6
g2
g6
I1
tp6266
g17
tp6267
I0
s((g10
g1
g1
I4
tp6268
g36
tp6269
I0
s((g10
g10
g2
I4
tp6270
g36
tp6271
F-0.5066666666666668
s((g2
g10
g2
I9
tp6272
g36
tp6273
F534.9096200000001
s((g6
g10
g6
I5
tp6274
g17
tp6275
I0
s((g1
g1
g2
I11
tp6276
g17
tp6277
I0
s((g1
g10
g1
I7
tp6278
g17
tp6279
I0
s((g6
g1
g1
I6
tp6280
g4
tp6281
I0
s((g1
g1
g10
I6
tp6282
g36
tp6283
I0
s((g10
g10
g6
I7
tp6284
g14
tp6285
F540.6040851827958
s((g1
g2
g2
I3
tp6286
g8
tp6287
I0
s((g6
g10
g6
I8
tp6288
g17
tp6289
F9.091666666666669
s((g6
g2
g6
I2
tp6290
g17
tp6291
I0
s((g1
g2
g1
I9
tp6292
g8
tp6293
I0
s((g6
g6
g6
I9
tp6294
g8
tp6295
F100.05000000000001
s((g10
g6
g2
I11
tp6296
g14
tp6297
I0
s((g1
g2
g6
I8
tp6298
g4
tp6299
I0
s((g10
g2
g1
I6
tp6300
g4
tp6301
I0
s((g1
g10
g10
I11
tp6302
g36
tp6303
I0
s((g10
g10
g2
I1
tp6304
g36
tp6305
I0
s((g1
g10
g2
I3
tp6306
g4
tp6307
I0
s((g1
g10
g10
I2
tp6308
g8
tp6309
I0
s((g1
g10
g2
I4
tp6310
g14
tp6311
I0
s((g1
g1
g6
I10
tp6312
g36
tp6313
I0
s((g1
g10
g10
I10
tp6314
g4
tp6315
I0
s((g10
g6
g2
I7
tp6316
g17
tp6317
I0
s((g10
g1
g6
I6
tp6318
g14
tp6319
I0
s((g6
g1
g10
I1
tp6320
g17
tp6321
I0
s((g2
g10
g10
I7
tp6322
g17
tp6323
F0.2375
s((g2
g10
g10
I5
tp6324
g17
tp6325
I0
s((g6
g2
g1
I11
tp6326
g8
tp6327
I0
s((g2
g6
g1
I4
tp6328
g4
tp6329
I0
s((g1
g10
g1
I11
tp6330
g14
tp6331
I0
s((g6
g10
g10
I7
tp6332
g36
tp6333
I0
s((g6
g6
g1
I2
tp6334
g14
tp6335
I0
s((g10
g10
g10
I4
tp6336
g4
tp6337
F-0.3260835005
s((g1
g10
g2
I2
tp6338
g4
tp6339
I0
s((g1
g2
g10
I4
tp6340
g4
tp6341
I0
s((g6
g10
g2
I9
tp6342
g14
tp6343
F5780.326749346372
s((g10
g1
g10
I9
tp6344
g14
tp6345
I0
s((g1
g2
g6
I9
tp6346
g17
tp6347
I0
s((g6
g6
g1
I8
tp6348
g14
tp6349
I0
s((g6
g10
g6
I4
tp6350
g14
tp6351
F726.3234451138522
s((g6
g2
g1
I1
tp6352
g14
tp6353
I0
s((g1
g6
g1
I6
tp6354
g14
tp6355
I0
s((g6
g2
g6
I7
tp6356
g17
tp6357
I0
s((g2
g6
g2
I10
tp6358
g4
tp6359
I0
s((g2
g2
g6
I7
tp6360
g4
tp6361
F0.6555000000000002
s((g6
g2
g6
I4
tp6362
g17
tp6363
I0
s((g2
g6
g1
I8
tp6364
g36
tp6365
I0
s((g1
g1
g10
I4
tp6366
g4
tp6367
I0
s((g6
g6
g1
I9
tp6368
g8
tp6369
I0
s((g1
g1
g10
I1
tp6370
g36
tp6371
F-8.55015328792749
s((g10
g6
g10
I8
tp6372
g14
tp6373
F1724.3439195988628
s((g6
g1
g10
I11
tp6374
g17
tp6375
I0
s((g10
g10
g1
I6
tp6376
g8
tp6377
I0
s((g2
g1
g2
I5
tp6378
g36
tp6379
I0
s((g10
g2
g2
I4
tp6380
g4
tp6381
F-2.03952488
s((g10
g2
g1
I1
tp6382
g4
tp6383
I0
s((g6
g6
g1
I5
tp6384
g14
tp6385
I0
s((g1
g6
g10
I6
tp6386
g36
tp6387
I0
s((g6
g6
g2
I7
tp6388
g17
tp6389
I0
s((g10
g6
g6
I4
tp6390
g8
tp6391
I0
s((g6
g6
g10
I11
tp6392
g17
tp6393
I0
s((g1
g6
g2
I6
tp6394
g17
tp6395
I0
s((g1
g10
g2
I11
tp6396
g4
tp6397
I0
s((g10
g2
g1
I7
tp6398
g36
tp6399
I0
s((g6
g1
g10
I1
tp6400
g36
tp6401
I0
s((g6
g10
g1
I10
tp6402
g8
tp6403
I0
s((g10
g6
g6
I10
tp6404
g36
tp6405
I0
s((g1
g2
g1
I7
tp6406
g14
tp6407
I0
s((g2
g6
g2
I1
tp6408
g17
tp6409
I0
s((g10
g2
g6
I3
tp6410
g14
tp6411
F1402.3303619859892
s((g10
g6
g2
I9
tp6412
g17
tp6413
I0
s((g1
g1
g1
I6
tp6414
g14
tp6415
I0
s((g10
g6
g6
I3
tp6416
g17
tp6417
I0
s((g1
g6
g10
I4
tp6418
g36
tp6419
I0
s((g1
g6
g2
I6
tp6420
g8
tp6421
I0
s((g1
g1
g10
I5
tp6422
g17
tp6423
I0
s((g6
g2
g10
I4
tp6424
g4
tp6425
I0
s((g10
g6
g1
I4
tp6426
g36
tp6427
I0
s((g1
g10
g1
I1
tp6428
g36
tp6429
I0
s((g2
g2
g6
I4
tp6430
g14
tp6431
F7329.408196716532
s((g2
g10
g10
I6
tp6432
g14
tp6433
F6489.5939514284
s((g2
g10
g2
I11
tp6434
g36
tp6435
I0
s((g10
g1
g1
I2
tp6436
g4
tp6437
I0
s((g2
g6
g6
I2
tp6438
g4
tp6439
I0
s((g6
g1
g2
I1
tp6440
g14
tp6441
I0
s((g1
g2
g2
I6
tp6442
g14
tp6443
I0
s((g10
g10
g2
I9
tp6444
g36
tp6445
F-0.3166666666666668
s((g1
g1
g2
I10
tp6446
g14
tp6447
I0
s((g10
g6
g2
I11
tp6448
g8
tp6449
I0
s((g1
g1
g6
I9
tp6450
g36
tp6451
I0
s((g1
g1
g6
I2
tp6452
g17
tp6453
I0
s((g10
g6
g2
I3
tp6454
g4
tp6455
I0
s((g1
g1
g6
I3
tp6456
g17
tp6457
I0
s((g2
g6
g2
I6
tp6458
g36
tp6459
I0
s((g1
g2
g1
I4
tp6460
g36
tp6461
I0
s((g2
g6
g1
I5
tp6462
g17
tp6463
I0
s((g1
g10
g1
I2
tp6464
g8
tp6465
I0
s((g2
g1
g2
I9
tp6466
g36
tp6467
I0
s((g2
g2
g6
I1
tp6468
g8
tp6469
I0
s((g10
g10
g1
I1
tp6470
g17
tp6471
I0
s((g10
g1
g2
I10
tp6472
g36
tp6473
I0
s((g10
g6
g2
I5
tp6474
g17
tp6475
I0
s((g6
g10
g10
I7
tp6476
g17
tp6477
I0
s((g10
g6
g2
I10
tp6478
g17
tp6479
I0
s((g2
g6
g10
I9
tp6480
g14
tp6481
F2351.7783575253316
s((g10
g10
g2
I4
tp6482
g14
tp6483
F9063.944903178937
s((g2
g6
g6
I8
tp6484
g17
tp6485
F20.824
s((g1
g2
g10
I6
tp6486
g36
tp6487
I0
s((g2
g10
g6
I2
tp6488
g8
tp6489
F-0.1073095
s((g2
g10
g2
I6
tp6490
g17
tp6491
F0.5
s((g2
g1
g2
I2
tp6492
g8
tp6493
I0
s((g6
g6
g6
I10
tp6494
g4
tp6495
I0
s((g2
g2
g6
I6
tp6496
g17
tp6497
I0
s((g10
g10
g1
I1
tp6498
g8
tp6499
I0
s((g2
g2
g10
I3
tp6500
g14
tp6501
F7415.641896857509
s((g1
g10
g1
I7
tp6502
g36
tp6503
I0
s((g6
g1
g1
I6
tp6504
g14
tp6505
I0
s((g1
g1
g2
I7
tp6506
g4
tp6507
I0
s((g10
g2
g1
I9
tp6508
g4
tp6509
I0
s((g1
g1
g6
I10
tp6510
g14
tp6511
I0
s((g10
g6
g10
I6
tp6512
g36
tp6513
I0
s((g2
g1
g10
I7
tp6514
g8
tp6515
I0
s((g1
g10
g10
I9
tp6516
g8
tp6517
I0
s((g1
g10
g1
I10
tp6518
g4
tp6519
I0
s((g2
g1
g10
I9
tp6520
g8
tp6521
I0
s((g10
g1
g10
I10
tp6522
g17
tp6523
I0
s((g6
g10
g1
I5
tp6524
g4
tp6525
I0
s((g1
g1
g6
I8
tp6526
g4
tp6527
I0
s((g6
g2
g6
I8
tp6528
g36
tp6529
I0
s((g6
g2
g1
I7
tp6530
g4
tp6531
I0
s((g1
g1
g1
I3
tp6532
g36
tp6533
I0
s((g1
g6
g6
I1
tp6534
g4
tp6535
I0
s((g10
g1
g2
I7
tp6536
g4
tp6537
I0
s((g1
g6
g6
I6
tp6538
g8
tp6539
I0
s((g1
g1
g2
I11
tp6540
g36
tp6541
I0
s((g10
g10
g1
I11
tp6542
g17
tp6543
I0
s((g6
g1
g1
I1
tp6544
g36
tp6545
I0
s((g10
g6
g10
I11
tp6546
g4
tp6547
I0
s((g6
g10
g10
I2
tp6548
g4
tp6549
I0
s((g2
g6
g1
I7
tp6550
g8
tp6551
I0
s((g1
g6
g2
I1
tp6552
g4
tp6553
I0
s((g2
g2
g10
I7
tp6554
g8
tp6555
F-1.09
s((g10
g1
g2
I7
tp6556
g17
tp6557
I0
s((g1
g10
g1
I5
tp6558
g17
tp6559
I0
s((g10
g10
g10
I1
tp6560
g36
tp6561
I0
s((g10
g6
g1
I1
tp6562
g36
tp6563
I0
s((g6
g10
g10
I2
tp6564
g17
tp6565
I0
s((g10
g6
g10
I10
tp6566
g4
tp6567
I0
s((g10
g2
g2
I5
tp6568
g17
tp6569
F-2.9257142500000004
s((g1
g2
g2
I5
tp6570
g8
tp6571
I0
s((g1
g6
g10
I9
tp6572
g17
tp6573
I0
s((g6
g10
g6
I7
tp6574
g14
tp6575
I0
s((g10
g6
g2
I8
tp6576
g14
tp6577
F6550.3538980567155
s((g6
g2
g2
I10
tp6578
g8
tp6579
F1000.5
s((g6
g1
g2
I7
tp6580
g4
tp6581
I0
s((g1
g1
g2
I3
tp6582
g17
tp6583
I0
s((g6
g10
g2
I3
tp6584
g36
tp6585
F-0.8687992676342646
s((g6
g2
g2
I9
tp6586
g17
tp6587
I0
s((g1
g1
g6
I2
tp6588
g14
tp6589
I0
s((g1
g6
g1
I3
tp6590
g4
tp6591
I0
s((g10
g1
g2
I2
tp6592
g14
tp6593
I0
s((g10
g2
g10
I2
tp6594
g4
tp6595
F-0.5
s((g1
g2
g1
I8
tp6596
g4
tp6597
I0
s((g10
g2
g1
I5
tp6598
g14
tp6599
I0
s((g10
g6
g10
I5
tp6600
g36
tp6601
I0
s((g10
g2
g2
I11
tp6602
g17
tp6603
I0
s((g10
g1
g6
I3
tp6604
g36
tp6605
I0
s((g1
g6
g1
I9
tp6606
g14
tp6607
I0
s((g1
g2
g2
I5
tp6608
g36
tp6609
I0
s((g6
g1
g1
I8
tp6610
g4
tp6611
I0
s((g1
g1
g10
I1
tp6612
g17
tp6613
F-7.146645489484089
s((g1
g2
g10
I9
tp6614
g17
tp6615
I0
s((g6
g1
g6
I10
tp6616
g8
tp6617
I0
s((g1
g2
g6
I8
tp6618
g8
tp6619
I0
s((g10
g1
g6
I2
tp6620
g8
tp6621
I0
s((g2
g1
g1
I2
tp6622
g36
tp6623
I0
s((g2
g10
g10
I8
tp6624
g14
tp6625
F5327.2241096472835
s((g10
g2
g10
I4
tp6626
g8
tp6627
F-1.00285
s((g2
g6
g2
I1
tp6628
g14
tp6629
I0
s((g2
g2
g2
I8
tp6630
g17
tp6631
F371.58315775870676
s((g1
g2
g1
I2
tp6632
g4
tp6633
I0
s((g1
g6
g1
I4
tp6634
g17
tp6635
I0
s((g6
g1
g6
I6
tp6636
g14
tp6637
I0
s((g10
g10
g1
I7
tp6638
g4
tp6639
I0
s((g10
g10
g1
I5
tp6640
g4
tp6641
I0
s((g6
g6
g10
I2
tp6642
g8
tp6643
I0
s((g10
g6
g10
I5
tp6644
g8
tp6645
I0
s((g1
g1
g1
I6
tp6646
g36
tp6647
I0
s((g6
g10
g6
I3
tp6648
g36
tp6649
I0
s((g1
g6
g1
I10
tp6650
g17
tp6651
I0
s((g1
g6
g1
I5
tp6652
g17
tp6653
I0
s((g1
g2
g10
I7
tp6654
g14
tp6655
I0
s((g6
g1
g2
I4
tp6656
g17
tp6657
I0
s((g2
g2
g1
I2
tp6658
g14
tp6659
I0
s((g10
g2
g6
I4
tp6660
g8
tp6661
I0
s((g10
g10
g6
I3
tp6662
g17
tp6663
I0
s((g1
g2
g10
I8
tp6664
g4
tp6665
I0
s((g2
g2
g6
I5
tp6666
g36
tp6667
I0
s((g2
g1
g6
I10
tp6668
g14
tp6669
I0
s((g6
g2
g6
I4
tp6670
g14
tp6671
F1944.1999788653386
s((g10
g2
g6
I8
tp6672
g4
tp6673
I0
s((g10
g6
g6
I11
tp6674
g14
tp6675
I0
s((g2
g6
g10
I1
tp6676
g17
tp6677
I0
s((g10
g1
g10
I2
tp6678
g14
tp6679
I0
s((g10
g1
g1
I2
tp6680
g14
tp6681
I0
s((g1
g2
g2
I4
tp6682
g36
tp6683
I0
s((g2
g2
g10
I11
tp6684
g4
tp6685
I0
s((g1
g2
g6
I9
tp6686
g14
tp6687
I0
s((g1
g10
g2
I5
tp6688
g17
tp6689
I0
s((g10
g2
g10
I6
tp6690
g14
tp6691
F4977.591402369012
s((g1
g2
g1
I11
tp6692
g4
tp6693
I0
s((g2
g2
g10
I10
tp6694
g36
tp6695
F4176.70755
s((g2
g6
g1
I2
tp6696
g14
tp6697
I0
s((g6
g10
g1
I10
tp6698
g17
tp6699
I0
s((g1
g10
g1
I11
tp6700
g17
tp6701
I0
s((g1
g1
g6
I9
tp6702
g8
tp6703
I0
s((g1
g6
g2
I3
tp6704
g17
tp6705
I0
s((g6
g2
g1
I8
tp6706
g4
tp6707
I0
s((g2
g2
g6
I6
tp6708
g14
tp6709
F5977.081910265374
s((g10
g10
g2
I10
tp6710
g36
tp6711
F3065.6658333333335
s((g1
g2
g2
I4
tp6712
g8
tp6713
I0
s((g6
g10
g2
I4
tp6714
g14
tp6715
F1197.5981637912676
s((g2
g10
g6
I9
tp6716
g36
tp6717
I0
s((g10
g10
g6
I9
tp6718
g17
tp6719
I0
s((g6
g1
g6
I1
tp6720
g8
tp6721
I0
s((g10
g10
g2
I3
tp6722
g17
tp6723
F-0.08521666666666675
s((g6
g1
g1
I4
tp6724
g8
tp6725
I0
s((g6
g1
g6
I3
tp6726
g36
tp6727
I0
s((g2
g2
g1
I7
tp6728
g36
tp6729
I0
s((g2
g6
g1
I6
tp6730
g4
tp6731
I0
s((g1
g1
g1
I3
tp6732
g14
tp6733
I0
s((g1
g1
g2
I3
tp6734
g14
tp6735
I0
s((g10
g2
g1
I9
tp6736
g14
tp6737
I0
s((g2
g2
g6
I3
tp6738
g17
tp6739
F-1.355
s((g6
g2
g10
I9
tp6740
g4
tp6741
F561.9885083333334
s((g1
g6
g2
I7
tp6742
g14
tp6743
I0
s((g6
g10
g6
I9
tp6744
g17
tp6745
I0
s((g6
g2
g2
I6
tp6746
g4
tp6747
F-0.6000000000000001
s((g1
g1
g6
I8
tp6748
g14
tp6749
I0
s((g10
g6
g1
I2
tp6750
g4
tp6751
I0
s((g2
g2
g1
I11
tp6752
g4
tp6753
I0
s((g10
g6
g1
I5
tp6754
g14
tp6755
I0
s((g1
g10
g1
I6
tp6756
g14
tp6757
I0
s((g6
g1
g2
I5
tp6758
g17
tp6759
I0
s((g1
g6
g2
I9
tp6760
g8
tp6761
I0
s((g10
g6
g6
I8
tp6762
g17
tp6763
I0
s((g10
g6
g6
I11
tp6764
g17
tp6765
I0
s((g1
g2
g2
I10
tp6766
g8
tp6767
I0
s((g10
g6
g1
I2
tp6768
g8
tp6769
I0
s((g10
g1
g2
I9
tp6770
g14
tp6771
I0
s((g2
g2
g1
I1
tp6772
g14
tp6773
I0
s((g2
g2
g2
I11
tp6774
g36
tp6775
I0
s((g2
g1
g1
I1
tp6776
g36
tp6777
I0
s((g10
g10
g2
I6
tp6778
g14
tp6779
F11609.592310611702
s((g2
g6
g6
I11
tp6780
g4
tp6781
I0
s((g6
g6
g2
I6
tp6782
g8
tp6783
I0
s((g6
g6
g10
I7
tp6784
g14
tp6785
I0
s((g6
g2
g6
I10
tp6786
g14
tp6787
F5393.192795
s((g10
g6
g2
I8
tp6788
g4
tp6789
F64.91296550000001
s((g2
g1
g6
I1
tp6790
g36
tp6791
I0
s((g2
g2
g2
I8
tp6792
g36
tp6793
F66.4944203590955
s((g10
g10
g6
I1
tp6794
g4
tp6795
I0
s((g6
g10
g2
I11
tp6796
g4
tp6797
I0
s((g2
g6
g6
I11
tp6798
g17
tp6799
I0
s((g1
g1
g6
I8
tp6800
g17
tp6801
I0
s((g10
g6
g10
I2
tp6802
g4
tp6803
I0
s((g1
g1
g1
I2
tp6804
g4
tp6805
I0
s((g6
g6
g2
I6
tp6806
g4
tp6807
F1.2912623500000002
s((g2
g10
g6
I4
tp6808
g17
tp6809
I0
s((g2
g2
g1
I4
tp6810
g36
tp6811
I0
s((g1
g10
g6
I9
tp6812
g4
tp6813
I0
s((g2
g1
g10
I3
tp6814
g36
tp6815
I0
s((g10
g2
g2
I10
tp6816
g4
tp6817
F3980.9195
s((g10
g2
g1
I6
tp6818
g17
tp6819
I0
s((g10
g2
g1
I9
tp6820
g17
tp6821
I0
s((g6
g10
g2
I3
tp6822
g8
tp6823
I0
s((g2
g6
g1
I7
tp6824
g36
tp6825
I0
s((g10
g1
g6
I9
tp6826
g17
tp6827
I0
s((g10
g1
g6
I1
tp6828
g14
tp6829
I0
s((g1
g10
g1
I3
tp6830
g17
tp6831
I0
s((g6
g1
g1
I2
tp6832
g4
tp6833
I0
s((g10
g10
g10
I7
tp6834
g4
tp6835
F7.769270000000002
s((g1
g2
g6
I7
tp6836
g14
tp6837
I0
s((g10
g6
g10
I10
tp6838
g36
tp6839
I0
s((g6
g2
g1
I5
tp6840
g36
tp6841
I0
s((g1
g10
g2
I7
tp6842
g36
tp6843
I0
s((g1
g10
g1
I4
tp6844
g8
tp6845
I0
s((g6
g10
g1
I9
tp6846
g4
tp6847
I0
s((g6
g6
g6
I3
tp6848
g8
tp6849
I0
s((g2
g10
g10
I8
tp6850
g4
tp6851
F31.394528333333337
s((g1
g2
g2
I8
tp6852
g4
tp6853
I0
s((g6
g2
g1
I8
tp6854
g36
tp6855
I0
s((g10
g1
g1
I6
tp6856
g4
tp6857
I0
s((g10
g6
g10
I11
tp6858
g8
tp6859
I0
s((g2
g10
g6
I4
tp6860
g8
tp6861
I0
s((g10
g6
g2
I3
tp6862
g17
tp6863
I0
s((g10
g6
g10
I8
tp6864
g17
tp6865
I0
s((g6
g2
g1
I1
tp6866
g8
tp6867
I0
s((g6
g6
g6
I9
tp6868
g36
tp6869
I0
s((g2
g10
g2
I11
tp6870
g4
tp6871
I0
s((g6
g6
g1
I4
tp6872
g17
tp6873
I0
s((g10
g10
g10
I6
tp6874
g14
tp6875
F3.088855110211901
s((g10
g2
g6
I9
tp6876
g4
tp6877
I0
s((g2
g1
g1
I6
tp6878
g14
tp6879
I0
s((g2
g10
g10
I1
tp6880
g14
tp6881
I0
s((g6
g2
g6
I3
tp6882
g4
tp6883
I0
s((g10
g1
g6
I2
tp6884
g17
tp6885
I0
s((g10
g6
g10
I4
tp6886
g14
tp6887
F445.0070467349599
s((g6
g1
g6
I11
tp6888
g4
tp6889
I0
s((g10
g1
g1
I10
tp6890
g4
tp6891
I0
s((g10
g10
g10
I5
tp6892
g17
tp6893
F0.0
s((g1
g1
g10
I4
tp6894
g14
tp6895
I0
s((g2
g6
g2
I4
tp6896
g36
tp6897
F-0.1
s((g2
g6
g6
I11
tp6898
g8
tp6899
I0
s((g1
g1
g1
I10
tp6900
g14
tp6901
I0
s((g1
g1
g6
I6
tp6902
g17
tp6903
I0
s((g6
g1
g2
I5
tp6904
g36
tp6905
I0
s((g6
g6
g10
I8
tp6906
g8
tp6907
I0
s((g2
g10
g10
I11
tp6908
g14
tp6909
I0
s((g2
g2
g2
I7
tp6910
g14
tp6911
F13014.23511255405
s((g10
g1
g6
I2
tp6912
g4
tp6913
I0
s((g10
g2
g1
I1
tp6914
g36
tp6915
I0
s((g6
g10
g1
I5
tp6916
g36
tp6917
I0
s((g6
g1
g6
I3
tp6918
g14
tp6919
I0
s((g1
g1
g1
I6
tp6920
g8
tp6921
I0
s((g10
g1
g6
I5
tp6922
g14
tp6923
I0
s((g6
g10
g6
I5
tp6924
g14
tp6925
F633.3822678590936
s((g2
g2
g6
I5
tp6926
g4
tp6927
F-1.19419413815
s((g10
g2
g6
I1
tp6928
g14
tp6929
I0
s((g10
g1
g1
I6
tp6930
g14
tp6931
I0
s((g6
g1
g6
I6
tp6932
g17
tp6933
I0
s((g2
g6
g6
I1
tp6934
g17
tp6935
I0
s((g2
g2
g10
I10
tp6936
g8
tp6937
F1520.95
s((g1
g2
g2
I3
tp6938
g4
tp6939
I0
s((g2
g2
g1
I7
tp6940
g17
tp6941
I0
s((g1
g1
g2
I6
tp6942
g14
tp6943
I0
s((g2
g10
g6
I7
tp6944
g17
tp6945
I0
s((g1
g2
g10
I9
tp6946
g14
tp6947
I0
s((g2
g2
g6
I4
tp6948
g17
tp6949
F-1.355
s((g1
g1
g6
I8
tp6950
g36
tp6951
I0
s((g10
g2
g1
I5
tp6952
g8
tp6953
I0
s((g10
g6
g10
I3
tp6954
g14
tp6955
I0
s((g1
g6
g2
I7
tp6956
g8
tp6957
I0
s((g2
g6
g2
I3
tp6958
g17
tp6959
I0
s((g10
g1
g2
I3
tp6960
g36
tp6961
I0
s((g6
g6
g6
I7
tp6962
g4
tp6963
F1.0555
s((g10
g6
g10
I1
tp6964
g8
tp6965
I0
s((g2
g2
g1
I9
tp6966
g36
tp6967
I0
s((g2
g2
g1
I7
tp6968
g8
tp6969
I0
s((g2
g1
g2
I8
tp6970
g36
tp6971
I0
s((g1
g6
g10
I6
tp6972
g8
tp6973
I0
s((g10
g10
g1
I2
tp6974
g36
tp6975
I0
s((g10
g2
g2
I4
tp6976
g14
tp6977
F10119.154939744636
s((g1
g2
g10
I3
tp6978
g14
tp6979
I0
s((g1
g10
g6
I1
tp6980
g14
tp6981
I0
s((g10
g2
g6
I2
tp6982
g14
tp6983
F1017.0966190544923
s((g10
g6
g1
I5
tp6984
g4
tp6985
I0
s((g6
g1
g1
I2
tp6986
g17
tp6987
I0
s((g2
g10
g1
I8
tp6988
g4
tp6989
I0
s((g2
g2
g1
I7
tp6990
g4
tp6991
I0
s((g1
g2
g10
I1
tp6992
g4
tp6993
I0
s((g2
g1
g2
I2
tp6994
g14
tp6995
I0
s((g10
g2
g6
I8
tp6996
g36
tp6997
I0
s((g2
g6
g2
I3
tp6998
g36
tp6999
F0.0
s((g10
g2
g2
I10
tp7000
g17
tp7001
F1900.95
s((g6
g6
g6
I6
tp7002
g4
tp7003
I0
s((g1
g10
g1
I4
tp7004
g14
tp7005
I0
s((g6
g6
g6
I8
tp7006
g14
tp7007
F3309.6483138716876
s((g10
g10
g6
I9
tp7008
g8
tp7009
F100.05000000000001
s((g2
g6
g6
I9
tp7010
g4
tp7011
F120.05000000000001
s((g10
g10
g2
I6
tp7012
g4
tp7013
F7.260266691610837
s((g10
g6
g2
I7
tp7014
g4
tp7015
I0
s((g10
g1
g6
I10
tp7016
g17
tp7017
I0
s((g6
g2
g10
I9
tp7018
g36
tp7019
F-0.5
s((g6
g10
g6
I8
tp7020
g36
tp7021
I0
s((g10
g2
g10
I8
tp7022
g36
tp7023
F4.369000000000001
s((g2
g10
g1
I7
tp7024
g14
tp7025
I0
s((g2
g2
g2
I7
tp7026
g4
tp7027
F77.50732823010502
s((g10
g10
g1
I5
tp7028
g36
tp7029
I0
s((g2
g6
g10
I11
tp7030
g14
tp7031
I0
s((g2
g6
g1
I5
tp7032
g36
tp7033
I0
s((g6
g10
g2
I8
tp7034
g8
tp7035
F-0.5
s((g2
g6
g2
I10
tp7036
g8
tp7037
F1301.0
s((g1
g2
g10
I2
tp7038
g36
tp7039
I0
s((g10
g1
g6
I9
tp7040
g8
tp7041
I0
s((g10
g10
g10
I5
tp7042
g4
tp7043
F-0.0645
s((g10
g10
g1
I3
tp7044
g8
tp7045
I0
s((g2
g10
g1
I10
tp7046
g14
tp7047
I0
s((g2
g2
g1
I8
tp7048
g14
tp7049
I0
s.