c__builtin__
set
p0
((lp1
S'The Road'
p2
aS'Yes Man'
p3
aS'Wanderlust'
p4
aS'Gremlins'
p5
aS'Life of Pi'
p6
aS'Kingpin'
p7
aS'Videodrome'
p8
aS'Under Siege'
p9
aS'Six Days Seven Nights'
p10
aS'The Butterfly Effect'
p11
aS'We Need to Talk About Kevin'
p12
aS'The Chronicles of Narnia: The Lion  the Witch and the Wardrobe'
p13
aS'Side Effects'
p14
aS'Superhero Movie'
p15
aS'Begin Again'
p16
aS'The Blind Side'
p17
aS'Blade'
p18
aS"We're the Millers"
p19
aS'Lockout'
p20
aS'Stargate'
p21
aS'San Andreas'
p22
aS'The Squid and the Whale'
p23
aS'The Muppets'
p24
aS'The Lost Boys'
p25
aS'Fantastic Mr. Fox'
p26
aS'The LEGO Batman Movie'
p27
aS'Go'
p28
aS'Paul'
p29
aS'The Crazies'
p30
aS"Lee Daniels' The Butler"
p31
aS'Dancer in the Dark'
p32
aS'Evan Almighty'
p33
aS'John Carter'
p34
aS'The Sting'
p35
aS'Charade'
p36
aS'Before Sunrise'
p37
aS'Wonder Woman'
p38
aS'Suspiria'
p39
aS'The Amazing Spider-Man'
p40
aS'Bedtime Stories'
p41
aS'The Secret Life of Pets'
p42
aS"Brooklyn's Finest"
p43
aS'Guardians of the Galaxy Vol. 2'
p44
aS'Thunderball'
p45
aS'Gosford Park'
p46
aS'The Texas Chainsaw Massacre'
p47
aS'American Psycho'
p48
aS'Dumbo'
p49
aS'Twilight'
p50
aS'How to Lose a Guy in 10 Days'
p51
aS'Man of Steel'
p52
aS'I Am Legend'
p53
aS'S1m0ne'
p54
aS'Real Steel'
p55
aS'Skyline'
p56
aS'Knocked Up'
p57
aS'The Cable Guy'
p58
aS'X-Men'
p59
aS'Tommy Boy'
p60
aS'Downfall'
p61
aS'The Day After Tomorrow'
p62
aS'The Assassination of Jesse James by the Coward Robert Ford'
p63
aS'The Twilight Saga: Eclipse'
p64
aS'Hush'
p65
aS'Confessions of a Dangerous Mind'
p66
aS'The Jackal'
p67
aS'Home'
p68
aS'Snow White and the Seven Dwarfs'
p69
aS'Do the Right Thing'
p70
aS'Little Fockers'
p71
aS'Captain America: The First Avenger'
p72
aS'War for the Planet of the Apes'
p73
aS'Syriana'
p74
aS'Revolver'
p75
aS"You're Next"
p76
aS'The Imitation Game'
p77
aS'Basic'
p78
aS'Inferno'
p79
aS'Epic'
p80
aS'Pompeii'
p81
aS'Jurassic Park'
p82
aS'Juno'
p83
aS'Brother Bear'
p84
aS'The Wedding Planner'
p85
aS'Stay'
p86
aS'Half Baked'
p87
aS'Unfriended'
p88
aS'Ghost World'
p89
aS'Waiting...'
p90
aS'Scrooged'
p91
aS'Christine'
p92
aS'Oculus'
p93
aS'Battle Los Angeles'
p94
aS'Boogie Nights'
p95
aS'That Awkward Moment'
p96
aS'Gone with the Wind'
p97
aS'Appaloosa'
p98
aS'Step Up 2: The Streets'
p99
aS'The Heat'
p100
aS'A.I. Artificial Intelligence'
p101
aS'Shakespeare in Love'
p102
aS'The Searchers'
p103
aS'How to Train Your Dragon 2'
p104
aS'Iron Man 2'
p105
aS'Iron Man 3'
p106
aS"Charlie's Angels"
p107
aS'Toy Story 2'
p108
aS'Toy Story 3'
p109
aS'Crazy  Stupid  Love.'
p110
aS'The Layover'
p111
aS'The Apartment'
p112
aS'Cube\xc2\xb2: Hypercube'
p113
aS'Fifty Shades Darker'
p114
aS'Super 8'
p115
aS'Fahrenheit 9/11'
p116
aS'The Walk'
p117
aS'Irreversible'
p118
aS'Hancock'
p119
aS'Wild Things'
p120
aS'Hidden Figures'
p121
aS'The Invention of Lying'
p122
aS'Eyes Wide Shut'
p123
aS'I Know What You Did Last Summer'
p124
aS'Good Will Hunting'
p125
aS'Sex and the City 2'
p126
aS'Tombstone'
p127
aS'The Thomas Crown Affair'
p128
aS'The Jacket'
p129
aS'Wild'
p130
aS'Spaceballs'
p131
aS'Date Movie'
p132
aS'Jupiter Ascending'
p133
aS'Ali'
p134
aS'Super Troopers'
p135
aS'Enough Said'
p136
aS'Sphere'
p137
aS'Blade Runner'
p138
aS'To Kill a Mockingbird'
p139
aS'The Flintstones'
p140
aS'Brazil'
p141
aS'Iron Man'
p142
aS'Michael Clayton'
p143
aS'Star Trek II: The Wrath of Khan'
p144
aS'The Great Escape'
p145
aS'Jersey Girl'
p146
aS'Deja Vu'
p147
aS'Hotel Rwanda'
p148
aS'Rise of the Planet of the Apes'
p149
aS"My Best Friend's Wedding"
p150
aS'Outbreak'
p151
aS'The Girl on the Train'
p152
aS'Hero'
p153
aS'Bride Wars'
p154
aS'Blades of Glory'
p155
aS'Scream 2'
p156
aS'The Graduate'
p157
aS'Scream 4'
p158
aS'The Forbidden Kingdom'
p159
aS'Burnt'
p160
aS'G.I. Joe: The Rise of Cobra'
p161
aS'Fast & Furious'
p162
aS'Safety Not Guaranteed'
p163
aS'Hot Tub Time Machine'
p164
aS'Kids'
p165
aS'Final Fantasy VII: Advent Children'
p166
aS'Aliens vs. Predator: Requiem'
p167
aS'The Words'
p168
aS'An American Werewolf in London'
p169
aS'9'
p170
aS"Nick and Norah's Infinite Playlist"
p171
aS"Wayne's World 2"
p172
aS'Monsters vs. Aliens'
p173
aS'Elizabeth: The Golden Age'
p174
aS'The Texas Chainsaw Massacre: The Beginning'
p175
aS'The Straight Story'
p176
aS'Gangs of New York'
p177
aS'I Origins'
p178
aS'Shame'
p179
aS'The Evil Dead'
p180
aS'The Lion King'
p181
aS'Whatever Works'
p182
aS'Yojimbo'
p183
aS'The Matrix'
p184
aS'The DUFF'
p185
aS'Mona Lisa Smile'
p186
aS'Pain & Gain'
p187
aS'Running Scared'
p188
aS'First Contact'
p189
aS'Transporter 3'
p190
aS'Transporter 2'
p191
aS'Room'
p192
aS"Hachi: A Dog's Tale"
p193
aS'Reign of Fire'
p194
aS'Hercules'
p195
aS'Wonder Boys'
p196
aS'Taken 3'
p197
aS'Super'
p198
aS'Junior'
p199
aS'Death Sentence'
p200
aS'The Jungle Book'
p201
aS'Run  Fatboy  Run'
p202
aS'Love & Other Drugs'
p203
aS'The Last Witch Hunter'
p204
aS'Snowden'
p205
aS'3 Idiots'
p206
aS'The Notebook'
p207
aS'Heavenly Creatures'
p208
aS'The Master'
p209
aS'Transformers'
p210
aS'22 Jump Street'
p211
aS'Identity Thief'
p212
aS'Night at the Museum: Secret of the Tomb'
p213
aS'Unbreakable'
p214
aS'Pretty in Pink'
p215
aS'Rise of the Guardians'
p216
aS'Mission to Mars'
p217
aS'In Her Shoes'
p218
aS'Bandits'
p219
aS'Deliver Us from Evil'
p220
aS'DragonHeart'
p221
aS'Taking Lives'
p222
aS'The Mortal Instruments: City of Bones'
p223
aS'The Signal'
p224
aS'The Tuxedo'
p225
aS'Not Another Teen Movie'
p226
aS'Free Willy'
p227
aS'Matchstick Men'
p228
aS'Ruby Sparks'
p229
aS'A Most Wanted Man'
p230
aS"Jennifer's Body"
p231
aS'Billy Madison'
p232
aS'A View to a Kill'
p233
aS'Monsters'
p234
aS'Jack Reacher'
p235
aS'Cocktail'
p236
aS'Dr. Strangelove or: How I Learned to Stop Worrying and Love the Bomb'
p237
aS'Mission: Impossible - Ghost Protocol'
p238
aS"All the President's Men"
p239
aS'The NeverEnding Story'
p240
aS'Burlesque'
p241
aS'Blast from the Past'
p242
aS'A Lot Like Love'
p243
aS'North by Northwest'
p244
aS'Dog Day Afternoon'
p245
aS'Eastern Promises'
p246
aS'Rebecca'
p247
aS'The Brothers Grimsby'
p248
aS'Alexander'
p249
aS'The Aviator'
p250
aS'The Invasion'
p251
aS'Wag the Dog'
p252
aS'The Long Kiss Goodnight'
p253
aS'A Few Good Men'
p254
aS'Remember the Titans'
p255
aS'Home Alone 3'
p256
aS'Diamonds Are Forever'
p257
aS"Charlie Wilson's War"
p258
aS'48 Hrs.'
p259
aS'Honey  I Shrunk the Kids'
p260
aS'Chloe'
p261
aS'The Basketball Diaries'
p262
aS'Wrath of the Titans'
p263
aS'Cell 211'
p264
aS'Rogue One'
p265
aS'The Interpreter'
p266
aS'White House Down'
p267
aS'Power Rangers'
p268
aS"Bridget Jones's Diary"
p269
aS'Space Jam'
p270
aS'The Pacifier'
p271
aS'The Golden Compass'
p272
aS'The Birds'
p273
aS'Chicago'
p274
aS'A Perfect World'
p275
aS"Everybody's Fine"
p276
aS'Wedding Crashers'
p277
aS'Clerks II'
p278
aS'Unbroken'
p279
aS'21 Jump Street'
p280
aS'Flight'
p281
aS'United 93'
p282
aS'The Philadelphia Story'
p283
aS'To Catch a Thief'
p284
aS'Cop Out'
p285
aS'Dream House'
p286
aS'Blood Simple.'
p287
aS'The Accountant'
p288
aS'Transformers: Dark of the Moon'
p289
aS'The Imaginarium of Doctor Parnassus'
p290
aS'Frozen'
p291
aS'Shooter'
p292
aS'Resident Evil: Apocalypse'
p293
aS'Lucy'
p294
aS'The Craft'
p295
aS'The Other Woman'
p296
aS'The Karate Kid Part II'
p297
aS'Zodiac'
p298
aS'Kong: Skull Island'
p299
aS'A Million Ways to Die in the West'
p300
aS'For Your Eyes Only'
p301
aS'Cobra'
p302
aS'Sling Blade'
p303
aS'Johnny Mnemonic'
p304
aS'Delicatessen'
p305
aS'The Chronicles of Narnia: Prince Caspian'
p306
aS'Half Nelson'
p307
aS'Fantastic Four'
p308
aS'Transcendence'
p309
aS'Garfield'
p310
aS'In Time'
p311
aS'The King of Comedy'
p312
aS'Election'
p313
aS'Anaconda'
p314
aS'Inkheart'
p315
aS'Kiss Kiss Bang Bang'
p316
aS'Galaxy Quest'
p317
aS'Underworld Awakening'
p318
aS'The Chronicles of Riddick'
p319
aS'16 Blocks'
p320
aS'Snow White and the Huntsman'
p321
aS'Beerfest'
p322
aS'Twister'
p323
aS'Drive Angry'
p324
aS'John Q'
p325
aS'Jack Ryan: Shadow Recruit'
p326
aS'Big'
p327
aS'The Heartbreak Kid'
p328
aS'Harry Potter and the Prisoner of Azkaban'
p329
aS'Dead Poets Society'
p330
aS'Being John Malkovich'
p331
aS'Unforgiven'
p332
aS'Horton Hears a Who!'
p333
aS'Snitch'
p334
aS'The Manchurian Candidate'
p335
aS'The Island'
p336
aS'The Day the Earth Stood Still'
p337
aS'Darkman'
p338
aS'When in Rome'
p339
aS'What Happens in Vegas'
p340
aS'Attack the Block'
p341
aS'Fast Times at Ridgemont High'
p342
aS'Alien 3'
p343
aS'Ben-Hur'
p344
aS'Million Dollar Baby'
p345
aS'From Hell'
p346
aS'The Treasure of the Sierra Madre'
p347
aS'Southpaw'
p348
aS'Final Fantasy: The Spirits Within'
p349
aS'Matilda'
p350
aS'Snakes on a Plane'
p351
aS'The Intouchables'
p352
aS"Miller's Crossing"
p353
aS'Robot & Frank'
p354
aS'Rio'
p355
aS'Fun with Dick and Jane'
p356
aS'Ronin'
p357
aS'Weird Science'
p358
aS'Saw 3D: The Final Chapter'
p359
aS'Shrek Forever After'
p360
aS'A History of Violence'
p361
aS'A Beautiful Mind'
p362
aS'The Mummy: Tomb of the Dragon Emperor'
p363
aS'Percy Jackson: Sea of Monsters'
p364
aS'Stuart Little'
p365
aS'Taken'
p366
aS'Grown Ups'
p367
aS'Analyze This'
p368
aS'Footloose'
p369
aS'The Fourth Kind'
p370
aS'Chak de! India'
p371
aS'Dirty Harry'
p372
aS"Pirates of the Caribbean: Dead Man's Chest"
p373
aS'TMNT'
p374
aS'Insomnia'
p375
aS'The Sitter'
p376
aS'I Am Number Four'
p377
aS'Indiana Jones and the Temple of Doom'
p378
aS'Love Me If You Dare'
p379
aS'Harold & Kumar Escape from Guantanamo Bay'
p380
aS'Star Wars: Episode IV - A New Hope'
p381
aS'Some Like It Hot'
p382
aS'V for Vendetta'
p383
aS"White Men Can't Jump"
p384
aS'The Lord of the Rings: The Two Towers'
p385
aS'The Hangover Part III'
p386
aS'Elite Squad'
p387
aS'Mindhunters'
p388
aS'Premium Rush'
p389
aS'The Fugitive'
p390
aS'Oblivion'
p391
aS'The Hills Have Eyes II'
p392
aS'Basic Instinct'
p393
aS'3:10 to Yuma'
p394
aS'Seven Pounds'
p395
aS'Zack and Miri Make a Porno'
p396
aS'Demolition Man'
p397
aS'Escape from New York'
p398
aS'Broken City'
p399
aS'The Prince of Egypt'
p400
aS'Into the Storm'
p401
aS'Vacancy'
p402
aS"What's Eating Gilbert Grape"
p403
aS'Marie Antoinette'
p404
aS'The Fall'
p405
aS'Final Destination 2'
p406
aS'Before Sunset'
p407
aS"Grandma's Boy"
p408
aS'Closer'
p409
aS'The Pink Panther'
p410
aS'La Femme Nikita'
p411
aS'Groundhog Day'
p412
aS'Office Space'
p413
aS'Bee Movie'
p414
aS'Europa Report'
p415
aS'The Lego Movie'
p416
aS'Me Before You'
p417
aS'Good Morning  Vietnam'
p418
aS'Kick-Ass'
p419
aS'The Whole Nine Yards'
p420
aS'The Bourne Supremacy'
p421
aS'AVP: Alien vs. Predator'
p422
aS'Skyfall'
p423
aS'The Hangover Part II'
p424
aS'12 Angry Men'
p425
aS'Day of the Dead'
p426
aS'Poseidon'
p427
aS'Righteous Kill'
p428
aS'In Good Company'
p429
aS'Justin Bieber: Never Say Never'
p430
aS'Walk Hard: The Dewey Cox Story'
p431
aS'Salmon Fishing in the Yemen'
p432
aS'Misery'
p433
aS'Batman Forever'
p434
aS'The Mechanic'
p435
aS'Secretary'
p436
aS'21 & Over'
p437
aS'Star Trek Beyond'
p438
aS'Naked Gun 33 1/3: The Final Insult'
p439
aS'Maid in Manhattan'
p440
aS'Hook'
p441
aS'Behind Enemy Lines'
p442
aS'Journey 2: The Mysterious Island'
p443
aS'Funny Games'
p444
aS'Ip Man'
p445
aS'Tomorrowland'
p446
aS'Spy Kids'
p447
aS'The Witch'
p448
aS"It's a Wonderful Life"
p449
aS'Madagascar'
p450
aS'xXx: Return of Xander Cage'
p451
aS'Finding Dory'
p452
aS'Joy Ride'
p453
aS'Captain America: Civil War'
p454
aS'Vacation'
p455
aS"Who's Afraid of Virginia Woolf?"
p456
aS'Ninja Assassin'
p457
aS'Who Framed Roger Rabbit'
p458
aS'The Blues Brothers'
p459
aS'Eraser'
p460
aS'Logan Lucky'
p461
aS'Anger Management'
p462
aS'Inglourious Basterds'
p463
aS'Faster'
p464
aS'The Last Boy Scout'
p465
aS'Raiders of the Lost Ark'
p466
aS'The Devil Wears Prada'
p467
aS'Red Heat'
p468
aS'The Hunchback of Notre Dame'
p469
aS'Rememory'
p470
aS'Blue Jasmine'
p471
aS"Surf's Up"
p472
aS'Bringing Out the Dead'
p473
aS'The Perks of Being a Wallflower'
p474
aS'Bangkok Dangerous'
p475
aS'The Hateful Eight'
p476
aS'Youth in Revolt'
p477
aS'Spectre'
p478
aS'While You Were Sleeping'
p479
aS'Four Christmases'
p480
aS'Lost in Translation'
p481
aS'Along Came Polly'
p482
aS'Inside Job'
p483
aS'The Polar Express'
p484
aS'Serpico'
p485
aS'Hocus Pocus'
p486
aS'The Outsiders'
p487
aS'Red Eye'
p488
aS'The Nice Guys'
p489
aS'Saw III'
p490
aS'Delivery Man'
p491
aS'Evil Dead'
p492
aS'The Raven'
p493
aS'Exit Through the Gift Shop'
p494
aS"A Bug's Life"
p495
aS'Sliding Doors'
p496
aS'A Fistful of Dollars'
p497
aS'WALL\xc2\xb7E'
p498
aS'Arsenic and Old Lace'
p499
aS'Men in Black 3'
p500
aS'Lawrence of Arabia'
p501
aS'Windtalkers'
p502
aS'Maverick'
p503
aS'Paranormal Activity 4'
p504
aS'The Incredible Hulk'
p505
aS'Addams Family Values'
p506
aS'RoboCop 2'
p507
aS'Nausica\xc3\xa4 of the Valley of the Wind'
p508
aS'Four Rooms'
p509
aS'Bad Grandpa'
p510
aS'The Informant!'
p511
aS'Urban Legend'
p512
aS'Ed Wood'
p513
aS'The Hundred-Foot Journey'
p514
aS'Fruitvale Station'
p515
aS'Mars Attacks!'
p516
aS'Paprika'
p517
aS'What Women Want'
p518
aS'The Mothman Prophecies'
p519
aS'Paranormal Activity 3'
p520
aS'Paranormal Activity 2'
p521
aS'Shanghai Noon'
p522
aS'BASEketball'
p523
aS'How to Be Single'
p524
aS'Charlie St. Cloud'
p525
aS'Eddie the Eagle'
p526
aS'Barry Lyndon'
p527
aS'Wild Tales'
p528
aS'Mortal Kombat'
p529
aS"Howl's Moving Castle"
p530
aS'Battle Royale'
p531
aS'American Ultra'
p532
aS'Species'
p533
aS'Witness'
p534
aS'We Own the Night'
p535
aS'Blue Ruin'
p536
aS'Rebel Without a Cause'
p537
aS'Lights Out'
p538
aS'Dredd'
p539
aS'Risky Business'
p540
aS'Apocalypto'
p541
aS'The Man from Earth'
p542
aS'Fargo'
p543
aS'Edge of Darkness'
p544
aS'Fences'
p545
aS'Dil Chahta Hai'
p546
aS'The Princess and the Frog'
p547
aS'Grindhouse'
p548
aS'Life'
p549
aS'Cube'
p550
aS'Space Cowboys'
p551
aS'Safe'
p552
aS'Mr. Nobody'
p553
aS'Days of Thunder'
p554
aS'Annabelle'
p555
aS'The Shawshank Redemption'
p556
aS'The Hunger Games: Catching Fire'
p557
aS'In the Valley of Elah'
p558
aS'Accepted'
p559
aS'Pocahontas'
p560
aS'Bottle Rocket'
p561
aS'The Twilight Saga: New Moon'
p562
aS'Going the Distance'
p563
aS'Dead Silence'
p564
aS'\xc3\x86on Flux'
p565
aS'I Love You  Man'
p566
aS'The Cider House Rules'
p567
aS'The Full Monty'
p568
aS'Mallrats'
p569
aS'Taken 2'
p570
aS"Ocean's Twelve"
p571
aS'Bambi'
p572
aS'The Ugly Truth'
p573
aS'The Perfect Storm'
p574
aS"Monster's Ball"
p575
aS'Dark Water'
p576
aS'Conan the Barbarian'
p577
aS'The Birdcage'
p578
aS'Lara Croft Tomb Raider: The Cradle of Life'
p579
aS'Nerve'
p580
aS'Man on Fire'
p581
aS'The Artist'
p582
aS'Hugo'
p583
aS'The Fighter'
p584
aS'Pandorum'
p585
aS'Cruel Intentions'
p586
aS'Two Night Stand'
p587
aS'About Time'
p588
aS"The Hitman's Bodyguard"
p589
aS'The Longest Ride'
p590
aS'Scarface'
p591
aS'I Still Know What You Did Last Summer'
p592
aS'The Counselor'
p593
aS'Kung Fu Panda 3'
p594
aS'Self/less'
p595
aS'The Dark Tower'
p596
aS'Constantine'
p597
aS'Body of Lies'
p598
aS"Dante's Peak"
p599
aS'Cloud Atlas'
p600
aS'A Very Harold & Kumar 3D Christmas'
p601
aS'A Christmas Carol'
p602
aS'I  Robot'
p603
aS'Safe House'
p604
aS'Unleashed'
p605
aS'Being There'
p606
aS"The Sorcerer's Apprentice"
p607
aS"Ferris Bueller's Day Off"
p608
aS'Drillbit Taylor'
p609
aS'Exam'
p610
aS'My Girl'
p611
aS'Finding Neverland'
p612
aS'Sex Tape'
p613
aS'Blackfish'
p614
aS'Killers'
p615
aS'The Naked Gun 2\xc2\xbd: The Smell of Fear'
p616
aS"Big Momma's House"
p617
aS'The Purge'
p618
aS'The Thin Red Line'
p619
aS'Pearl Harbor'
p620
aS'Passengers'
p621
aS'Superbad'
p622
aS'In the Line of Fire'
p623
aS'Rocky'
p624
aS'Ratatouille'
p625
aS'Sinister'
p626
aS'The Thing'
p627
aS'Hall Pass'
p628
aS'Mystic River'
p629
aS'L\xc3\xa9on: The Professional'
p630
aS'The House Bunny'
p631
aS"Carlito's Way"
p632
aS'Phenomenon'
p633
aS'Mirrors'
p634
aS'Escape Plan'
p635
aS'A Series of Unfortunate Events'
p636
aS'Spartacus'
p637
aS"Paris  je t'aime"
p638
aS'The Black Dahlia'
p639
aS'Lolita'
p640
aS'Gone Baby Gone'
p641
aS'Ballerina'
p642
aS'In Bruges'
p643
aS'Inherent Vice'
p644
aS'Amistad'
p645
aS'Mirror Mirror'
p646
aS'Porco Rosso'
p647
aS'47 Ronin'
p648
aS'The Departed'
p649
aS'Sleepy Hollow'
p650
aS'Indiana Jones and the Kingdom of the Crystal Skull'
p651
aS'What About Bob?'
p652
aS'No Reservations'
p653
aS'Chef'
p654
aS'Why Him?'
p655
aS'Happy Gilmore'
p656
aS'Monster'
p657
aS'The Doors'
p658
aS'Over the Hedge'
p659
aS'Halloween H20: 20 Years Later'
p660
aS'The Grand Budapest Hotel'
p661
aS'Alpha Dog'
p662
aS'Judge Dredd'
p663
aS'Dark Shadows'
p664
aS'Shanghai Knights'
p665
aS'Quiz Show'
p666
aS'Pirates of the Caribbean: Dead Men Tell No Tales'
p667
aS'Drive'
p668
aS'Frost/Nixon'
p669
aS'Peter Pan'
p670
aS'Con Air'
p671
aS'The Naked Gun: From the Files of Police Squad!'
p672
aS'The Great Debaters'
p673
aS'Monty Python and the Holy Grail'
p674
aS'The Cell'
p675
aS'Blue Is the Warmest Color'
p676
aS'Warm Bodies'
p677
aS'3 Days to Kill'
p678
aS'Frank'
p679
aS'The Water Diviner'
p680
aS'Ghostbusters II'
p681
aS'Dirty Rotten Scoundrels'
p682
aS'Knight and Day'
p683
aS'Alien: Resurrection'
p684
aS"The Devil's Double"
p685
aS'Cool Runnings'
p686
aS'Get the Gringo'
p687
aS"Smokin' Aces"
p688
aS'Elephant'
p689
aS'Rashomon'
p690
aS'Snatch'
p691
aS'Enemy at the Gates'
p692
aS"The Devil's Advocate"
p693
aS'Metropolis'
p694
aS'Ice Age: Continental Drift'
p695
aS'Lilo & Stitch'
p696
aS'The Raid 2'
p697
aS'Mamma Mia!'
p698
aS'The Theory of Everything'
p699
aS'The Life Aquatic with Steve Zissou'
p700
aS'J. Edgar'
p701
aS'Bolt'
p702
aS'Hell or High Water'
p703
aS'War Horse'
p704
aS'The Hot Chick'
p705
aS'Labyrinth'
p706
aS'Dances with Wolves'
p707
aS'Coraline'
p708
aS'13 Assassins'
p709
aS'Erin Brockovich'
p710
aS'Confessions of a Shopaholic'
p711
aS'Alice in Wonderland'
p712
aS'My Super Ex-Girlfriend'
p713
aS'Whip It'
p714
aS'Hannibal'
p715
aS'Men in Black'
p716
aS'Glengarry Glen Ross'
p717
aS'Parker'
p718
aS'The Fast and the Furious: Tokyo Drift'
p719
aS'Battleship'
p720
aS'The Croods'
p721
aS'Requiem for a Dream'
p722
aS'Mulholland Dr.'
p723
aS'Monster House'
p724
aS'Up in the Air'
p725
aS'RoboCop'
p726
aS'Flags of our Fathers'
p727
aS'A Christmas Story'
p728
aS'The Green Mile'
p729
aS'Gravity'
p730
aS'The Truman Show'
p731
aS'Just Like Heaven'
p732
aS'The Name of the Rose'
p733
aS'Swingers'
p734
aS'Rambo III'
p735
aS'Centurion'
p736
aS'Wild at Heart'
p737
aS'City of God'
p738
aS'Ride Along'
p739
aS'Vantage Point'
p740
aS'The Campaign'
p741
aS'8 Mile'
p742
aS'Moana'
p743
aS'Austin Powers: The Spy Who Shagged Me'
p744
aS'The White Ribbon'
p745
aS'Red Dragon'
p746
aS'Heat'
p747
aS'Meet the Parents'
p748
aS'Open Season'
p749
aS'Harold & Kumar Go to White Castle'
p750
aS'The Boss Baby'
p751
aS'Speed 2: Cruise Control'
p752
aS'Old Boy'
p753
aS'The Last Samurai'
p754
aS'This Means War'
p755
aS'American Wedding'
p756
aS'Insidious'
p757
aS'Driving Miss Daisy'
p758
aS'Arachnophobia'
p759
aS'Serendipity'
p760
aS'Spider-Man 2'
p761
aS'Spider-Man 3'
p762
aS'Apollo 13'
p763
aS'The Crimson Rivers'
p764
aS'Eragon'
p765
aS'Orphan'
p766
aS'The People vs. Larry Flynt'
p767
aS'Take Shelter'
p768
aS'Poltergeist'
p769
aS'Snowpiercer'
p770
aS'Billy Elliot'
p771
aS'Dirty Dancing'
p772
aS'Thelma & Louise'
p773
aS'Eight Below'
p774
aS'The Rum Diary'
p775
aS'Cinderella Man'
p776
aS'Bad Teacher'
p777
aS'Beetlejuice'
p778
aS'Br\xc3\xbcno'
p779
aS'Atlantis: The Lost Empire'
p780
aS'The Conjuring'
p781
aS'The Fifth Element'
p782
aS'Law Abiding Citizen'
p783
aS'Contraband'
p784
aS'Case 39'
p785
aS'Strangers on a Train'
p786
aS'Harsh Times'
p787
aS'Invincible'
p788
aS'Australia'
p789
aS"Pirates of the Caribbean: At World's End"
p790
aS'Man on the Moon'
p791
aS'Hostage'
p792
aS'The Human Centipede (First Sequence)'
p793
aS'No Country for Old Men'
p794
aS'Midnight Express'
p795
aS'Caddyshack'
p796
aS'Ultraviolet'
p797
aS'Face/Off'
p798
aS'The Mummy'
p799
aS'Blue Streak'
p800
aS'What If'
p801
aS'Girl with a Pearl Earring'
p802
aS'Shaft'
p803
aS"The Emperor's New Groove"
p804
aS'George of the Jungle'
p805
aS'From Paris with Love'
p806
aS'Fatal Attraction'
p807
aS'Evil Dead II'
p808
aS'ParaNorman'
p809
aS'Agora'
p810
aS'Push'
p811
aS'Coach Carter'
p812
aS'Margin Call'
p813
aS'Out of Africa'
p814
aS"Shoot 'Em Up"
p815
aS'Jackie Brown'
p816
aS'Philomena'
p817
aS'The Patriot'
p818
aS'After Earth'
p819
aS'Home Alone 2: Lost in New York'
p820
aS'Top Gun'
p821
aS'P.S. I Love You'
p822
aS'Four Brothers'
p823
aS'The Piano'
p824
aS'Johnny English Reborn'
p825
aS'Bronson'
p826
aS'Robin Hood'
p827
aS'Rocky IV'
p828
aS'Close Encounters of the Third Kind'
p829
aS'The Amityville Horror'
p830
aS'House of Wax'
p831
aS"The Time Traveler's Wife"
p832
aS'Munich'
p833
aS'2 Fast 2 Furious'
p834
aS'Prometheus'
p835
aS'La La Land'
p836
aS'One Day'
p837
aS'The Incredible Burt Wonderstone'
p838
aS'Rocky II'
p839
aS'Inside Llewyn Davis'
p840
aS'Eternal Sunshine of the Spotless Mind'
p841
aS'Letters to Juliet'
p842
aS'The Station Agent'
p843
aS'The Hunger Games: Mockingjay - Part 1'
p844
aS'Rock of Ages'
p845
aS"Daddy's Home"
p846
aS'Daredevil'
p847
aS'I Love You Phillip Morris'
p848
aS'Boyhood'
p849
aS"The Devil's Rejects"
p850
aS'Fury'
p851
aS'Blended'
p852
aS'X-Men: Days of Future Past'
p853
aS'Hard Candy'
p854
aS'As Above  So Below'
p855
aS'Vertical Limit'
p856
aS'Night at the Museum'
p857
aS'The Queen'
p858
aS'Captain America: The Winter Soldier'
p859
aS'Edge of Tomorrow'
p860
aS'Black Book'
p861
aS"The Girl Who Kicked the Hornet's Nest"
p862
aS'The Nightmare Before Christmas'
p863
aS'Life of Brian'
p864
aS'Charlie and the Chocolate Factory'
p865
aS'Tomorrow Never Dies'
p866
aS'Crimson Peak'
p867
aS'Once Upon a Time in the West'
p868
aS'The Ladykillers'
p869
aS'The Da Vinci Code'
p870
aS'Goal! The Dream Begins'
p871
aS'Defiance'
p872
aS'Dark City'
p873
aS'Trouble with the Curve'
p874
aS'The Fountain'
p875
aS'World War Z'
p876
aS'The Silence of the Lambs'
p877
aS'Gandhi'
p878
aS'A Walk Among the Tombstones'
p879
aS'Scream'
p880
aS'The Babadook'
p881
aS'Coffee and Cigarettes'
p882
aS"I'm Not There."
p883
aS'Step Brothers'
p884
aS"Jacob's Ladder"
p885
aS'The Sound of Music'
p886
aS'Enchanted'
p887
aS'The Magnificent Seven'
p888
aS'Open Range'
p889
aS'Sausage Party'
p890
aS'Milk'
p891
aS'G.I. Jane'
p892
aS'The Negotiator'
p893
aS'Rat Race'
p894
aS'Bridesmaids'
p895
aS'The Lost World: Jurassic Park'
p896
aS'The Sandlot'
p897
aS'The Seventh Seal'
p898
aS'Alvin and the Chipmunks'
p899
aS'Split'
p900
aS'American Pie'
p901
aS'Escape from Alcatraz'
p902
aS'Moonraker'
p903
aS'The Brave One'
p904
aS'Elizabeth'
p905
aS'xXx: State of the Union'
p906
aS'Joy'
p907
aS'[Rec]'
p908
aS'The Host'
p909
aS'Cheaper by the Dozen'
p910
aS'The Guest'
p911
aS'Ghostbusters'
p912
aS'The Expendables 2'
p913
aS'Super Size Me'
p914
aS'10 000 BC'
p915
aS'The Maze Runner'
p916
aS'The Tourist'
p917
aS'War Dogs'
p918
aS'The Social Network'
p919
aS"Bram Stoker's Dracula"
p920
aS'Mal\xc3\xa8na'
p921
aS"Legend of the Guardians: The Owls of Ga'Hoole"
p922
aS'Fright Night'
p923
aS'Project Almanac'
p924
aS'Independence Day: Resurgence'
p925
aS'Sherlock Holmes: A Game of Shadows'
p926
aS'Whiplash'
p927
aS'Into the Wild'
p928
aS'Sicario'
p929
aS'Jason Bourne'
p930
aS'Easy Rider'
p931
aS'Puss in Boots'
p932
aS'The Last Emperor'
p933
aS'Legend'
p934
aS'The Great Gatsby'
p935
aS'Clueless'
p936
aS'Run All Night'
p937
aS'Pulp Fiction'
p938
aS'Into the Blue'
p939
aS'The Midnight Meat Train'
p940
aS'Madagascar: Escape 2 Africa'
p941
aS'Candyman'
p942
aS'What a Girl Wants'
p943
aS'Swordfish'
p944
aS'Young Frankenstein'
p945
aS'Fanboys'
p946
aS'Red Dawn'
p947
aS'The Founder'
p948
aS'Abduction'
p949
aS'Another Earth'
p950
aS"Bill & Ted's Bogus Journey"
p951
aS'Martyrs'
p952
aS'In the Mood for Love'
p953
aS'You Only Live Twice'
p954
aS'Bend It Like Beckham'
p955
aS'Mean Streets'
p956
aS'The Happening'
p957
aS'The Change-Up'
p958
aS'Spawn'
p959
aS'Starsky & Hutch'
p960
aS'Batman Begins'
p961
aS'Liar Liar'
p962
aS'Shrek the Third'
p963
aS'The Way Way Back'
p964
aS'The Last Airbender'
p965
aS'Prisoners'
p966
aS'Iron Sky'
p967
aS'Three Kings'
p968
aS'Legion'
p969
aS'St. Vincent'
p970
aS'Beasts of the Southern Wild'
p971
aS'Black Swan'
p972
aS'I Am Sam'
p973
aS'Philadelphia'
p974
aS'The Five-Year Engagement'
p975
aS'2 Guns'
p976
aS'A Most Violent Year'
p977
aS'Die Another Day'
p978
aS'Strange Days'
p979
aS'Hotel Transylvania'
p980
aS'Home Alone'
p981
aS'Dragonball: Evolution'
p982
aS'Licence to Kill'
p983
aS'Memories of Murder'
p984
aS"What to Expect When You're Expecting"
p985
aS'Bedazzled'
p986
aS'Midnight Special'
p987
aS'Assassins'
p988
aS'Sky Captain and the World of Tomorrow'
p989
aS'A Perfect Murder'
p990
aS'Stuck in Love'
p991
aS'Maleficent'
p992
aS'Tropic Thunder'
p993
aS'Assault on Precinct 13'
p994
aS'Predator 2'
p995
aS'Dawn of the Dead'
p996
aS'Colombiana'
p997
aS'Sicko'
p998
aS"That's My Boy"
p999
aS'Street Fighter'
p1000
aS'Domino'
p1001
aS'A Night at the Roxbury'
p1002
aS'Independence Day'
p1003
aS'Olympus Has Fallen'
p1004
aS'Goon'
p1005
aS'Get Hard'
p1006
aS'The Siege'
p1007
aS'Deadpool'
p1008
aS'The Last King of Scotland'
p1009
aS'The Grudge'
p1010
aS'Forgetting Sarah Marshall'
p1011
aS'The X Files: I Want to Believe'
p1012
aS'Hot Shots!'
p1013
aS'Thir13en Ghosts'
p1014
aS'Adaptation.'
p1015
aS'101 Dalmatians'
p1016
aS'The Lone Ranger'
p1017
aS'Bad Moms'
p1018
aS'Hulk'
p1019
aS'Awake'
p1020
aS'Donnie Darko'
p1021
aS'Carnage'
p1022
aS'Ghost in the Shell'
p1023
aS'A Perfect Getaway'
p1024
aS'Star Wars: Episode II - Attack of the Clones'
p1025
aS'The Grapes of Wrath'
p1026
aS'Underworld: Evolution'
p1027
aS'Elektra'
p1028
aS'True to the Game'
p1029
aS'The Royal Tenenbaums'
p1030
aS'The Color Purple'
p1031
aS'Little Nicky'
p1032
aS'The Scorpion King'
p1033
aS'Catwoman'
p1034
aS"Pan's Labyrinth"
p1035
aS'Star Trek Into Darkness'
p1036
aS'Hairspray'
p1037
aS'Lady Vengeance'
p1038
aS'Shallow Hal'
p1039
aS'The Final Destination'
p1040
aS'The Girl with the Dragon Tattoo'
p1041
aS'The Lord of the Rings: The Return of the King'
p1042
aS'Ringu'
p1043
aS'Epic Movie'
p1044
aS'The Vow'
p1045
aS'The Blair Witch Project'
p1046
aS'The Bank Job'
p1047
aS'Lethal Weapon'
p1048
aS'End of Days'
p1049
aS'Freddy vs. Jason'
p1050
aS'A Wednesday'
p1051
aS'Tarzan'
p1052
aS'Public Enemies'
p1053
aS'Letters from Iwo Jima'
p1054
aS'Ponyo'
p1055
aS'Saving Private Ryan'
p1056
aS'Dodgeball: A True Underdog Story'
p1057
aS'The Darkest Hour'
p1058
aS'Dear John'
p1059
aS'Saw VI'
p1060
aS'House of Sand and Fog'
p1061
aS'Three Colors: Red'
p1062
aS'Sleepless in Seattle'
p1063
aS'To Rome with Love'
p1064
aS'Incendies'
p1065
aS'Midnight Run'
p1066
aS'Focus'
p1067
aS'A Nightmare on Elm Street'
p1068
aS'Scream 3'
p1069
aS'God Bless America'
p1070
aS'The Omen'
p1071
aS'The Duchess'
p1072
aS'1984'
p1073
aS'Goodfellas'
p1074
aS'Ransom'
p1075
aS'Superman III'
p1076
aS'The Mexican'
p1077
aS'Pacific Rim'
p1078
aS'Foxcatcher'
p1079
aS'The Smurfs'
p1080
aS'District B13'
p1081
aS'Papillon'
p1082
aS'Django Unchained'
p1083
aS'Annabelle: Creation'
p1084
aS'Four Weddings and a Funeral'
p1085
aS'Turbo'
p1086
aS'Burn After Reading'
p1087
aS'Killing Them Softly'
p1088
aS'Once Upon a Time in America'
p1089
aS'Never Say Never Again'
p1090
aS'The Forgotten'
p1091
aS'Death at a Funeral'
p1092
aS"The Devil's Backbone"
p1093
aS'Breaking the Waves'
p1094
aS'Ip Man 2'
p1095
aS'Identity'
p1096
aS'The Mist'
p1097
aS"Bill & Ted's Excellent Adventure"
p1098
aS'Spring  Summer  Fall  Winter... and Spring'
p1099
aS'Superman II'
p1100
aS'Doctor Dolittle'
p1101
aS'Shutter Island'
p1102
aS'Superman Returns'
p1103
aS'Doctor Strange'
p1104
aS'A Single Man'
p1105
aS'Resident Evil: Retribution'
p1106
aS'True Grit'
p1107
aS'Pitch Perfect 2'
p1108
aS'Interstellar'
p1109
aS'Little Miss Sunshine'
p1110
aS'Halloween II'
p1111
aS'Me and Earl and the Dying Girl'
p1112
aS'Goldfinger'
p1113
aS'Fifty Shades of Grey'
p1114
aS'The Girl Who Played with Fire'
p1115
aS'Evolution'
p1116
aS'My Cousin Vinny'
p1117
aS'Failure to Launch'
p1118
aS'The 13th Warrior'
p1119
aS'Cape Fear'
p1120
aS'Full Metal Jacket'
p1121
aS'House at the End of the Street'
p1122
aS'Men of Honor'
p1123
aS'Badlands'
p1124
aS'Wild Hogs'
p1125
aS'Meet the Fockers'
p1126
aS'Mr. Smith Goes to Washington'
p1127
aS'Ali G Indahouse'
p1128
aS'Jumper'
p1129
aS'Need for Speed'
p1130
aS'Gangs of Wasseypur'
p1131
aS'Antichrist'
p1132
aS'Carol'
p1133
aS'The Chronicles of Narnia: The Voyage of the Dawn Treader'
p1134
aS'Home Again'
p1135
aS'Ella Enchanted'
p1136
aS'The Boy'
p1137
aS'The Box'
p1138
aS'Zindagi Na Milegi Dobara'
p1139
aS'Persona'
p1140
aS'U.S. Marshals'
p1141
aS'What Lies Beneath'
p1142
aS'How to Train Your Dragon'
p1143
aS'28 Days Later...'
p1144
aS'Idiocracy'
p1145
aS'Remember Me'
p1146
aS'xXx'
p1147
aS'Dorian Gray'
p1148
aS'A Streetcar Named Desire'
p1149
aS'The Color of Money'
p1150
aS'Ted 2'
p1151
aS"One Flew Over the Cuckoo's Nest"
p1152
aS'The Fate of the Furious'
p1153
aS'Infernal Affairs'
p1154
aS'The Dictator'
p1155
aS'The Painted Veil'
p1156
aS'8\xc2\xbd'
p1157
aS'The Family Stone'
p1158
aS'The Science of Sleep'
p1159
aS'Runaway Bride'
p1160
aS'Harry Potter and the Goblet of Fire'
p1161
aS'Hide and Seek'
p1162
aS'The Rocky Horror Picture Show'
p1163
aS'Hot Fuzz'
p1164
aS'Legends of the Fall'
p1165
aS'Seven Samurai'
p1166
aS'Sweet Home Alabama'
p1167
aS'Practical Magic'
p1168
aS'Jobs'
p1169
aS'The Hudsucker Proxy'
p1170
aS'Lone Survivor'
p1171
aS'Kill Bill: Vol. 2'
p1172
aS'The Quick and the Dead'
p1173
aS'I Heart Huckabees'
p1174
aS'Crank'
p1175
aS'Speed Racer'
p1176
aS'Man on a Ledge'
p1177
aS'The Watch'
p1178
aS'Snake Eyes'
p1179
aS'Control'
p1180
aS'The Warriors'
p1181
aS'Batman & Robin'
p1182
aS'Ong-Bak: The Thai Warrior'
p1183
aS'Saw IV'
p1184
aS'Battlefield Earth'
p1185
aS'The Animatrix'
p1186
aS'Predators'
p1187
aS'Notorious'
p1188
aS'High Fidelity'
p1189
aS'The Twilight Saga: Breaking Dawn - Part 2'
p1190
aS'The Twilight Saga: Breaking Dawn - Part 1'
p1191
aS'The Bourne Legacy'
p1192
aS'Grown Ups 2'
p1193
aS'Kingsman: The Secret Service'
p1194
aS'Troy'
p1195
aS'The Meaning of Life'
p1196
aS'Memoirs of a Geisha'
p1197
aS'Army of Darkness'
p1198
aS'This Is Spinal Tap'
p1199
aS'Prince of Persia: The Sands of Time'
p1200
aS'Death Race'
p1201
aS'Adventureland'
p1202
aS'Bicentennial Man'
p1203
aS'The Bridges of Madison County'
p1204
aS'Sin City'
p1205
aS'American Pie 2'
p1206
aS'Jackass: The Movie'
p1207
aS'Capote'
p1208
aS'The Road Warrior'
p1209
aS'Sunset Boulevard'
p1210
aS'Kiss the Girls'
p1211
aS'TRON'
p1212
aS'Knowing'
p1213
aS'The Terminator'
p1214
aS'The Town'
p1215
aS'Ghost Town'
p1216
aS'Nymphomaniac: Vol. II'
p1217
aS'Chasing Amy'
p1218
aS'13 Hours'
p1219
aS'Limitless'
p1220
aS'Match Point'
p1221
aS'There Will Be Blood'
p1222
aS'John Wick'
p1223
aS'A Scanner Darkly'
p1224
aS"She's the Man"
p1225
aS'Enter the Void'
p1226
aS'I Saw the Devil'
p1227
aS'The Man with the Iron Fists'
p1228
aS'Back to the Future Part II'
p1229
aS"On Her Majesty's Secret Service"
p1230
aS'Johnny English'
p1231
aS'Now You See Me'
p1232
aS'Rambo'
p1233
aS'X-Men Origins: Wolverine'
p1234
aS'Jackass Number Two'
p1235
aS'The Deer Hunter'
p1236
aS'The Danish Girl'
p1237
aS'Vicky Cristina Barcelona'
p1238
aS'Shaolin Soccer'
p1239
aS'I Spit on Your Grave'
p1240
aS'Stalker'
p1241
aS'Monsters University'
p1242
aS'Only Lovers Left Alive'
p1243
aS'The Dukes of Hazzard'
p1244
aS'Midnight in Paris'
p1245
aS'The Raid: Redemption'
p1246
aS'Hostel'
p1247
aS'Headhunters'
p1248
aS'Young Adult'
p1249
aS'The Expendables 3'
p1250
aS"Mr. Bean's Holiday"
p1251
aS'Synecdoche  New York'
p1252
aS'The Dark Knight'
p1253
aS'The Good Shepherd'
p1254
aS'Mortdecai'
p1255
aS'Friday the 13th'
p1256
aS'I  Frankenstein'
p1257
aS'Equilibrium'
p1258
aS'The Prestige'
p1259
aS'Mad Max: Fury Road'
p1260
aS'Resident Evil'
p1261
aS'Harry Potter and the Deathly Hallows: Part 2'
p1262
aS'Coherence'
p1263
aS"Assassin's Creed"
p1264
aS'True Lies'
p1265
aS'The Wolfman'
p1266
aS'Get Smart'
p1267
aS'Beasts of No Nation'
p1268
aS'Collateral Beauty'
p1269
aS'A Good Year'
p1270
aS'About Schmidt'
p1271
aS'Oldboy'
p1272
aS'Max Payne'
p1273
aS'The Inbetweeners Movie'
p1274
aS'Bowfinger'
p1275
aS'Das Boot'
p1276
aS'Safe Haven'
p1277
aS'Malcolm X'
p1278
aS'Apocalypse Now'
p1279
aS'Freedom Writers'
p1280
aS'My Neighbor Totoro'
p1281
aS'The Expendables'
p1282
aS'When Harry Met Sally...'
p1283
aS'The Ides of March'
p1284
aS'Life as We Know It'
p1285
aS'All Is Lost'
p1286
aS'The Sword in the Stone'
p1287
aS'Wreck-It Ralph'
p1288
aS'Blow'
p1289
aS'Almost Famous'
p1290
aS'Brotherhood of the Wolf'
p1291
aS'Concussion'
p1292
aS'Cinderella'
p1293
aS'Robin Hood: Prince of Thieves'
p1294
aS'Miss Congeniality 2: Armed and Fabulous'
p1295
aS'Teenage Mutant Ninja Turtles'
p1296
aS'Enter the Dragon'
p1297
aS'Sex Drive'
p1298
aS'Red Lights'
p1299
aS'The Adjustment Bureau'
p1300
aS'American Assassin'
p1301
aS'Savages'
p1302
aS'Treasure Planet'
p1303
aS'Hot Rod'
p1304
aS'The Score'
p1305
aS'Clash of the Titans'
p1306
aS'Unstoppable'
p1307
aS'The Bling Ring'
p1308
aS'Shrek 2'
p1309
aS'Amadeus'
p1310
aS'The Machinist'
p1311
aS'Lost in Space'
p1312
aS'Project X'
p1313
aS'That Thing You Do!'
p1314
aS"Wayne's World"
p1315
aS'Chronicle'
p1316
aS'Two Weeks Notice'
p1317
aS'Dracula Untold'
p1318
aS'Water for Elephants'
p1319
aS'Julie & Julia'
p1320
aS'Anchorman 2: The Legend Continues'
p1321
aS'About a Boy'
p1322
aS'The Blue Lagoon'
p1323
aS'Small Soldiers'
p1324
aS'The Darjeeling Limited'
p1325
aS'The Switch'
p1326
aS'Casino Royale'
p1327
aS'Year One'
p1328
aS'Little Children'
p1329
aS'Night of the Living Dead'
p1330
aS'Kidnap'
p1331
aS'The Hurricane'
p1332
aS'The Neon Demon'
p1333
aS'Funny People'
p1334
aS'Beverly Hills Cop III'
p1335
aS'Unknown'
p1336
aS'The Faculty'
p1337
aS'Resident Evil: Afterlife'
p1338
aS'Gone in Sixty Seconds'
p1339
aS'Moon'
p1340
aS'Hitman'
p1341
aS'Paths of Glory'
p1342
aS'The Visit'
p1343
aS'Roman Holiday'
p1344
aS'Sherlock Holmes'
p1345
aS'Robin Hood: Men in Tights'
p1346
aS'Mr. Holmes'
p1347
aS'Sideways'
p1348
aS"Gulliver's Travels"
p1349
aS'X-Men: First Class'
p1350
aS'mother!'
p1351
aS'Arlington Road'
p1352
aS'Precious'
p1353
aS'American Hustle'
p1354
aS'The Wedding Singer'
p1355
aS'Leaving Las Vegas'
p1356
aS'Broken Flowers'
p1357
aS'Music and Lyrics'
p1358
aS'Ghost Ship'
p1359
aS'The Wizard of Oz'
p1360
aS'From Dusk Till Dawn'
p1361
aS'Cold Mountain'
p1362
aS'Back to the Future'
p1363
aS'The World Is Not Enough'
p1364
aS'The Hobbit: The Battle of the Five Armies'
p1365
aS'The Night of the Hunter'
p1366
aS'Salt'
p1367
aS'The Maltese Falcon'
p1368
aS'Dreamgirls'
p1369
aS'Beethoven'
p1370
aS'Noah'
p1371
aS'Only God Forgives'
p1372
aS'Born on the Fourth of July'
p1373
aS'G.I. Joe: Retaliation'
p1374
aS'The Grey'
p1375
aS'Broken Arrow'
p1376
aS'Psycho'
p1377
aS'The X Files'
p1378
aS'Monsters  Inc.'
p1379
aS'Silver Linings Playbook'
p1380
aS'Disconnect'
p1381
aS'Willow'
p1382
aS'The Talented Mr. Ripley'
p1383
aS'Lagaan: Once Upon a Time in India'
p1384
aS'First Blood'
p1385
aS'Watchmen'
p1386
aS'Annie Hall'
p1387
aS'Twelve Monkeys'
p1388
aS'High Noon'
p1389
aS'Dilwale Dulhania Le Jayenge'
p1390
aS'Goosebumps'
p1391
aS'Transformers: Revenge of the Fallen'
p1392
aS'True Romance'
p1393
aS'Star Wars: Episode V - The Empire Strikes Back'
p1394
aS'Mary Poppins'
p1395
aS'Solomon Kane'
p1396
aS'Alien: Covenant'
p1397
aS'Rush'
p1398
aS'Dead Man'
p1399
aS"Something's Gotta Give"
p1400
aS'Fantastic Beasts and Where to Find Them'
p1401
aS'25th Hour'
p1402
aS'Contact'
p1403
aS'The Interview'
p1404
aS'Trainspotting'
p1405
aS'Paranormal Activity'
p1406
aS'Silence'
p1407
aS'The Matrix Reloaded'
p1408
aS'Indiana Jones and the Last Crusade'
p1409
aS'Captain Fantastic'
p1410
aS'Green Lantern'
p1411
aS'Mr. Deeds'
p1412
aS'How to Lose Friends & Alienate People'
p1413
aS'Felon'
p1414
aS'Star Wars: Episode I - The Phantom Menace'
p1415
aS'Killer Elite'
p1416
aS'Devil'
p1417
aS'Despicable Me'
p1418
aS'Mission: Impossible - Rogue Nation'
p1419
aS'Y Tu Mam\xc3\xa1 Tambi\xc3\xa9n'
p1420
aS'Lock  Stock and Two Smoking Barrels'
p1421
aS'Extremely Loud & Incredibly Close'
p1422
aS'Hunt for the Wilderpeople'
p1423
aS'RED'
p1424
aS'Big Daddy'
p1425
aS'Crash'
p1426
aS'Pride and Glory'
p1427
aS'Batman Returns'
p1428
aS'Mission: Impossible'
p1429
aS'Ever After: A Cinderella Story'
p1430
aS'A Cinderella Story'
p1431
aS'Citizen Kane'
p1432
aS'Despicable Me 3'
p1433
aS'Despicable Me 2'
p1434
aS'Jingle All the Way'
p1435
aS'Waking Life'
p1436
aS'Minions'
p1437
aS'Romeo Must Die'
p1438
aS"There's Something About Mary"
p1439
aS'No Escape'
p1440
aS'Redemption'
p1441
aS'Awakenings'
p1442
aS'The Adventures of Tintin'
p1443
aS'Dark Skies'
p1444
aS'Tower Heist'
p1445
aS'Spotlight'
p1446
aS'Freaky Friday'
p1447
aS'Cast Away'
p1448
aS'Dangal'
p1449
aS'The 5th Wave'
p1450
aS'The Rundown'
p1451
aS"My Sister's Keeper"
p1452
aS'The Kid'
p1453
aS'Moulin Rouge!'
p1454
aS'The Brothers Grimm'
p1455
aS'Bruce Almighty'
p1456
aS'Kung Fu Panda 2'
p1457
aS'Be Kind Rewind'
p1458
aS'E.T. the Extra-Terrestrial'
p1459
aS'Silent Hill'
p1460
aS'Falling Down'
p1461
aS'Across the Universe'
p1462
aS'Road to Perdition'
p1463
aS'Beauty and the Beast'
p1464
aS'King Kong'
p1465
aS'The Princess Bride'
p1466
aS'They Live'
p1467
aS'Detachment'
p1468
aS'Star Wars: Episode III - Revenge of the Sith'
p1469
aS'Any Given Sunday'
p1470
aS'Clerks'
p1471
aS'Big Eyes'
p1472
aS'London Has Fallen'
p1473
aS'Out of Sight'
p1474
aS'Sunshine Cleaning'
p1475
aS'Sleepers'
p1476
aS"You've Got Mail"
p1477
aS'Perfume: The Story of a Murderer'
p1478
aS'Live and Let Die'
p1479
aS'Nebraska'
p1480
aS'The Recruit'
p1481
aS'Elysium'
p1482
aS'The Mask'
p1483
aS'West Side Story'
p1484
aS'The Lives of Others'
p1485
aS'Pay It Forward'
p1486
aS'Solaris'
p1487
aS'Nanny McPhee'
p1488
aS'Death Proof'
p1489
aS'Beowulf'
p1490
aS'Logan'
p1491
aS'Observe and Report'
p1492
aS'Signs'
p1493
aS'Just Go with It'
p1494
aS'On the Waterfront'
p1495
aS'Last Action Hero'
p1496
aS'Red State'
p1497
aS'JFK'
p1498
aS'The First Time'
p1499
aS'Bowling for Columbine'
p1500
aS'Ghost Rider: Spirit of Vengeance'
p1501
aS"Charlie's Angels: Full Throttle"
p1502
aS'Repo Men'
p1503
aS'Hitman: Agent 47'
p1504
aS'Immortals'
p1505
aS'Titan A.E.'
p1506
aS'The Iceman'
p1507
aS'Judgment at Nuremberg'
p1508
aS'The Good  the Bad and the Ugly'
p1509
aS'Collateral'
p1510
aS'Big Hero 6'
p1511
aS'Our Idiot Brother'
p1512
aS'21'
p1513
aS'Gothika'
p1514
aS'October Sky'
p1515
aS'A Bronx Tale'
p1516
aS'The Wicker Man'
p1517
aS'Chappie'
p1518
aS'Stoker'
p1519
aS'The Count of Monte Cristo'
p1520
aS'Insurgent'
p1521
aS'The Terminal'
p1522
aS'Star Wars: The Force Awakens'
p1523
aS'The Wolf of Wall Street'
p1524
aS'Journey to the Center of the Earth'
p1525
aS'Star Trek: Nemesis'
p1526
aS'Youth'
p1527
aS'WarGames'
p1528
aS'Jumanji'
p1529
aS'21 Grams'
p1530
aS'Machete'
p1531
aS'The 6th Day'
p1532
aS'Land of the Lost'
p1533
aS'Eat Pray Love'
p1534
aS'Upside Down'
p1535
aS'Ran'
p1536
aS'Aliens'
p1537
aS'Punisher: War Zone'
p1538
aS'Searching for Sugar Man'
p1539
aS'Bring It On'
p1540
aS'Hellraiser'
p1541
aS"She's Out of My League"
p1542
aS'Neighbors 2: Sorority Rising'
p1543
aS'Ray'
p1544
aS'Horrible Bosses 2'
p1545
aS'Wall Street'
p1546
aS'Les Mis\xc3\xa9rables'
p1547
aS'Blitz'
p1548
aS'Along Came a Spider'
p1549
aS'House of Flying Daggers'
p1550
aS'Mud'
p1551
aS'Cashback'
p1552
aS'Toy Story'
p1553
aS'Changing Lanes'
p1554
aS'Mean Girls'
p1555
aS'My Left Foot'
p1556
aS'The Bridge on the River Kwai'
p1557
aS'The Witches of Eastwick'
p1558
aS'Tears of the Sun'
p1559
aS'The Insider'
p1560
aS'Analyze That'
p1561
aS'The Uninvited'
p1562
aS'The Illusionist'
p1563
aS'Mercury Rising'
p1564
aS'Rush Hour 3'
p1565
aS'Rush Hour 2'
p1566
aS'Frankenstein'
p1567
aS'Still Alice'
p1568
aS'Doom'
p1569
aS'If I Stay'
p1570
aS'The Hurt Locker'
p1571
aS'Sin City: A Dame to Kill For'
p1572
aS"Before the Devil Knows You're Dead"
p1573
aS'The Last House on the Left'
p1574
aS'Contagion'
p1575
aS'Princess Mononoke'
p1576
aS'Flipped'
p1577
aS"It's Kind of a Funny Story"
p1578
aS'Mission: Impossible III'
p1579
aS'Jurassic World'
p1580
aS'Eraserhead'
p1581
aS'Triple 9'
p1582
aS'Star Trek: The Motion Picture'
p1583
aS'Angels & Demons'
p1584
aS'The Martian'
p1585
aS'Hannibal Rising'
p1586
aS'Frankenweenie'
p1587
aS'Walking Tall'
p1588
aS'Fearless'
p1589
aS'Ice Age: Dawn of the Dinosaurs'
p1590
aS'The Gift'
p1591
aS'Hidalgo'
p1592
aS'The Last of the Mohicans'
p1593
aS'Eden Lake'
p1594
aS'Wings of Desire'
p1595
aS'Rocky III'
p1596
aS'Blade: Trinity'
p1597
aS'Shark Tale'
p1598
aS'The Best Offer'
p1599
aS'Romeo + Juliet'
p1600
aS'Kingsman: The Golden Circle'
p1601
aS'The Big Lebowski'
p1602
aS'The Promise'
p1603
aS'Selma'
p1604
aS'Heathers'
p1605
aS'The Skeleton Key'
p1606
aS'The Hobbit: An Unexpected Journey'
p1607
aS'Blindness'
p1608
aS'Wolf Creek'
p1609
aS'Baby Driver'
p1610
aS'This Is England'
p1611
aS'Cinema Paradiso'
p1612
aS'Rang De Basanti'
p1613
aS'Before Midnight'
p1614
aS'The Taking of Pelham 123'
p1615
aS'30 Days of Night'
p1616
aS'The Tree of Life'
p1617
aS'Just Married'
p1618
aS'Rio 2'
p1619
aS'This Is the End'
p1620
aS'American Reunion'
p1621
aS'The Kids Are All Right'
p1622
aS'Taxi'
p1623
aS'Doomsday'
p1624
aS'Silent Hill: Revelation'
p1625
aS'Lost Highway'
p1626
aS"Fool's Gold"
p1627
aS'Master and Commander: The Far Side of the World'
p1628
aS'The Proposal'
p1629
aS'The Elephant Man'
p1630
aS'Waterworld'
p1631
aS'The Others'
p1632
aS'Nocturnal Animals'
p1633
aS'Sister Act'
p1634
aS'Harry Potter and the Chamber of Secrets'
p1635
aS'Click'
p1636
aS'Gladiator'
p1637
aS'Act of Valor'
p1638
aS'Sex and the City'
p1639
aS'End of Watch'
p1640
aS'The Bourne Ultimatum'
p1641
aS'Little Shop of Horrors'
p1642
aS'Se7en'
p1643
aS'Die Hard with a Vengeance'
p1644
aS'Sleeping Beauty'
p1645
aS'Twin Peaks: Fire Walk with Me'
p1646
aS'Rushmore'
p1647
aS'Triangle'
p1648
aS'Lady and the Tramp'
p1649
aS'The Wind Rises'
p1650
aS'Deuce Bigalow: Male Gigolo'
p1651
aS'Predator'
p1652
aS'Stranger Than Fiction'
p1653
aS'The Lobster'
p1654
aS'K-19: The Widowmaker'
p1655
aS'Cloudy with a Chance of Meatballs 2'
p1656
aS'The Good Catholic'
p1657
aS'Unfaithful'
p1658
aS'The Age of Adaline'
p1659
aS'Harry Potter and the Order of the Phoenix'
p1660
aS'[Rec] 2'
p1661
aS'Trumbo'
p1662
aS'One Hour Photo'
p1663
aS'Blazing Saddles'
p1664
aS'Valkyrie'
p1665
aS'The Virgin Suicides'
p1666
aS'Terminator 2: Judgment Day'
p1667
aS'Holes'
p1668
aS'The Other Boleyn Girl'
p1669
aS'Cop Land'
p1670
aS'The Fly'
p1671
aS'Lord of War'
p1672
aS'Semi-Pro'
p1673
aS'Hackers'
p1674
aS'Ex Machina'
p1675
aS'Underworld: Rise of the Lycans'
p1676
aS'It Follows'
p1677
aS'Barfi!'
p1678
aS'Star Trek III: The Search for Spock'
p1679
aS'Grosse Pointe Blank'
p1680
aS'Armageddon'
p1681
aS'Speed'
p1682
aS'Never Back Down'
p1683
aS'Serenity'
p1684
aS'Gone Girl'
p1685
aS'Jaws 2'
p1686
aS'Filth'
p1687
aS'Paris  Texas'
p1688
aS'The Great Beauty'
p1689
aS'The Lookout'
p1690
aS'Knock Knock'
p1691
aS'August: Osage County'
p1692
aS'Fracture'
p1693
aS'Gremlins 2: The New Batch'
p1694
aS'Zootopia'
p1695
aS'Around the World in 80 Days'
p1696
aS'Dr. No'
p1697
aS'What Happened to Monday'
p1698
aS'Fantastic 4: Rise of the Silver Surfer'
p1699
aS'The Celebration'
p1700
aS'The Lovely Bones'
p1701
aS'Saving Mr. Banks'
p1702
aS'Traffic'
p1703
aS'Biutiful'
p1704
aS'Birdman or (The Unexpected Virtue of Ignorance)'
p1705
aS'Runner Runner'
p1706
aS'The Mummy Returns'
p1707
aS'Paycheck'
p1708
aS'Barton Fink'
p1709
aS'Layer Cake'
p1710
aS'The SpongeBob SquarePants Movie'
p1711
aS'U-571'
p1712
aS'World Trade Center'
p1713
aS'The Bone Collector'
p1714
aS'Cach\xc3\xa9'
p1715
aS'Made of Honor'
p1716
aS'The Conjuring 2'
p1717
aS'Say Anything...'
p1718
aS'The Hobbit: The Desolation of Smaug'
p1719
aS'The Crow'
p1720
aS'Something Borrowed'
p1721
aS'Hunger'
p1722
aS'Tootsie'
p1723
aS'The Drop'
p1724
aS'The Cabin in the Woods'
p1725
aS'Jeff  Who Lives at Home'
p1726
aS'Friends with Benefits'
p1727
aS'The Waterboy'
p1728
aS'Deep Impact'
p1729
aS'The International'
p1730
aS'Night at the Museum: Battle of the Smithsonian'
p1731
aS"Singin' in the Rain"
p1732
aS'Jane Eyre'
p1733
aS'Rush Hour'
p1734
aS'Lucky Number Slevin'
p1735
aS'A Dangerous Method'
p1736
aS'August Rush'
p1737
aS'Grave of the Fireflies'
p1738
aS'Mama'
p1739
aS'Saw V'
p1740
aS'From Russia with Love'
p1741
aS'The Hustler'
p1742
aS'Predestination'
p1743
aS'Star Trek: Insurrection'
p1744
aS'The Goonies'
p1745
aS'The Nutty Professor'
p1746
aS'Frequency'
p1747
aS'Garden State'
p1748
aS'The Weather Man'
p1749
aS'Batman v Superman: Dawn of Justice'
p1750
aS'John Tucker Must Die'
p1751
aS'Legally Blonde'
p1752
aS'Spy Game'
p1753
aS'The Iron Lady'
p1754
aS'The Man with the Golden Gun'
p1755
aS'Dead Man Walking'
p1756
aS'The Spy Who Loved Me'
p1757
aS'The Constant Gardener'
p1758
aS'Anna Karenina'
p1759
aS'Fried Green Tomatoes'
p1760
aS'Flightplan'
p1761
aS'Jaws'
p1762
aS'I Now Pronounce You Chuck & Larry'
p1763
aS'Airplane!'
p1764
aS'The Ten Commandments'
p1765
aS'Stir of Echoes'
p1766
aS'Happiness'
p1767
aS'Superman'
p1768
aS"Let's Be Cops"
p1769
aS'The Kingdom'
p1770
aS'Inside Man'
p1771
aS'American Beauty'
p1772
aS'Braveheart'
p1773
aS'The Man in the Iron Mask'
p1774
aS'Kill Bill: Vol. 1'
p1775
aS'Frida'
p1776
aS'The Guardian'
p1777
aS'The Spectacular Now'
p1778
aS'War'
p1779
aS'Lady in the Water'
p1780
aS'Street Kings'
p1781
aS'El Mariachi'
p1782
aS'Conan the Destroyer'
p1783
aS'Brothers'
p1784
aS'Ghosts of Girlfriends Past'
p1785
aS'Cars'
p1786
aS'Rescue Dawn'
p1787
aS'Get Shorty'
p1788
aS'Green Street Hooligans'
p1789
aS'The Spirit'
p1790
aS'Morning Glory'
p1791
aS'Pretty Woman'
p1792
aS'Sabotage'
p1793
aS'Daddy Day Care'
p1794
aS'The Lake House'
p1795
aS'Good Bye Lenin!'
p1796
aS'Road Trip'
p1797
aS'Casino'
p1798
aS'Inception'
p1799
aS'Allied'
p1800
aS'Bewitched'
p1801
aS'Pirates of the Caribbean: The Curse of the Black Pearl'
p1802
aS'Spanglish'
p1803
aS'L.A. Confidential'
p1804
aS'Hollow Man'
p1805
aS'A Time to Kill'
p1806
aS'Midnight Cowboy'
p1807
aS'Like Stars on Earth'
p1808
aS'Everest'
p1809
aS'X-Men: The Last Stand'
p1810
aS'Good Night  and Good Luck.'
p1811
aS'Scent of a Woman'
p1812
aS'Three Colors: Blue'
p1813
aS'An Inconvenient Truth'
p1814
aS'X-Men: Apocalypse'
p1815
aS'War of the Worlds'
p1816
aS'The Revenant'
p1817
aS'Once Upon a Time in Mexico'
p1818
aS'Hitchcock'
p1819
aS'Ice Age: The Meltdown'
p1820
aS'Premonition'
p1821
aS'Kung Fu Panda'
p1822
aS'Panic Room'
p1823
aS'The Book Thief'
p1824
aS'Pitch Black'
p1825
aS'For a Few Dollars More'
p1826
aS'Dead Alive'
p1827
aS'Daylight'
p1828
aS'Megamind'
p1829
aS'The Intern'
p1830
aS'The Great Dictator'
p1831
aS'The Help'
p1832
aS'The Next Three Days'
p1833
aS'Arrival'
p1834
aS'Ace Ventura: Pet Detective'
p1835
aS'American Graffiti'
p1836
aS'The Addams Family'
p1837
aS'8MM'
p1838
aS'Tenacious D in The Pick of Destiny'
p1839
aS'The Sea Inside'
p1840
aS'The Exorcism of Emily Rose'
p1841
aS'Indecent Proposal'
p1842
aS'Chernobyl Diaries'
p1843
aS'The Longest Yard'
p1844
aS'The Internship'
p1845
aS"National Lampoon's Vacation"
p1846
aS'Akira'
p1847
aS'The Number 23'
p1848
aS'The Passion of the Christ'
p1849
aS'Old School'
p1850
aS'Stardust'
p1851
aS'The A-Team'
p1852
aS'The Purge: Anarchy'
p1853
aS'The Kite Runner'
p1854
aS'Terminator Salvation'
p1855
aS'Saw II'
p1856
aS'Maze Runner: The Scorch Trials'
p1857
aS'The Saint'
p1858
aS'The Godfather: Part III'
p1859
aS'Thor: The Dark World'
p1860
aS'50 First Dates'
p1861
aS'The Legend of Tarzan'
p1862
aS'50/50'
p1863
aS'Mad Max Beyond Thunderdome'
p1864
aS'The Diving Bell and the Butterfly'
p1865
aS'Bridget Jones: The Edge of Reason'
p1866
aS'Volcano'
p1867
aS'Seven Years in Tibet'
p1868
aS'Clue'
p1869
aS'The Beach'
p1870
aS'O Brother  Where Art Thou?'
p1871
aS'Suicide Squad'
p1872
aS'Final Destination 3'
p1873
aS'Men in Black II'
p1874
aS'The Strangers'
p1875
aS"Mr. Popper's Penguins"
p1876
aS'The Family Man'
p1877
aS'Final Destination 5'
p1878
aS'City Lights'
p1879
aS'Green Room'
p1880
aS'City of Angels'
p1881
aS'Far and Away'
p1882
aS'Crank: High Voltage'
p1883
aS'Cars 2'
p1884
aS'Good Luck Chuck'
p1885
aS'Glory'
p1886
aS'Deep Blue Sea'
p1887
aS'Chinatown'
p1888
aS'Thor'
p1889
aS'The Skin I Live In'
p1890
aS'The Dark Knight Rises'
p1891
aS'Brave'
p1892
aS'Clear and Present Danger'
p1893
aS'Pet Sematary'
p1894
aS'Phone Booth'
p1895
aS'Mystery Men'
p1896
aS'National Treasure: Book of Secrets'
p1897
aS'The Hunt'
p1898
aS'The Hunger Games'
p1899
aS'Sucker Punch'
p1900
aS"Boys Don't Cry"
p1901
aS'The Replacements'
p1902
aS'Mad Max'
p1903
aS'Mr. & Mrs. Smith'
p1904
aS'The Edge of Seventeen'
p1905
aS'Never Let Me Go'
p1906
aS'The Land Before Time'
p1907
aS'Atonement'
p1908
aS'Mr. Brooks'
p1909
aS'Friday Night Lights'
p1910
aS'The Purge: Election Year'
p1911
aS'Beverly Hills Cop'
p1912
aS'The Game'
p1913
aS'Season of the Witch'
p1914
aS'A Very Long Engagement'
p1915
aS'Manhunter'
p1916
aS'House of 1000 Corpses'
p1917
aS'Kal Ho Naa Ho'
p1918
aS'Volver'
p1919
aS'The Amazing Spider-Man 2'
p1920
aS'Nacho Libre'
p1921
aS"Harry Potter and the Sorcerer's Stone"
p1922
aS'Jack and Jill'
p1923
aS'Money Monster'
p1924
aS'\xc2\xa1Three Amigos!'
p1925
aS'300'
p1926
aS'M'
p1927
aS'Field of Dreams'
p1928
aS'Finding Forrester'
p1929
aS'Sense and Sensibility'
p1930
aS'Fear and Loathing in Las Vegas'
p1931
aS'The Great Wall'
p1932
aS'The Hangover'
p1933
aS'Star Trek IV: The Voyage Home'
p1934
aS'The Giver'
p1935
aS'The Lorax'
p1936
aS'The Fast and the Furious'
p1937
aS'Lion'
p1938
aS"The Man Who Wasn't There"
p1939
aS'10 Things I Hate About You'
p1940
aS'Elizabethtown'
p1941
aS'Dangerous Liaisons'
p1942
aS'27 Dresses'
p1943
aS'State of Play'
p1944
aS'Jeepers Creepers'
p1945
aS'In the Heat of the Night'
p1946
aS'Elf'
p1947
aS'Trading Places'
p1948
aS'We Bought a Zoo'
p1949
aS'Kubo and the Two Strings'
p1950
aS'The Bad Batch'
p1951
aS'The Boondock Saints'
p1952
aS'The Woman in Black'
p1953
aS'Run Lola Run'
p1954
aS'Van Wilder'
p1955
aS'Payback'
p1956
aS'Wanted'
p1957
aS'The Motorcycle Diaries'
p1958
aS"Rosemary's Baby"
p1959
aS'S.W.A.T.'
p1960
aS"Schindler's List"
p1961
aS'The Gambler'
p1962
aS'The Fisher King'
p1963
aS'The Awakening'
p1964
aS'Oz the Great and Powerful'
p1965
aS'Final Destination'
p1966
aS'Legally Blonde 2: Red  White & Blonde'
p1967
aS'Eagle Eye'
p1968
aS'Father of the Bride'
p1969
aS'Firewall'
p1970
aS'My Big Fat Greek Wedding'
p1971
aS'The Road to El Dorado'
p1972
aS'The Equalizer'
p1973
aS'Let the Right One In'
p1974
aS"Child's Play"
p1975
aS'Jarhead'
p1976
aS'Gran Torino'
p1977
aS'Mrs. Doubtfire'
p1978
aS'Black Hawk Down'
p1979
aS'Underworld'
p1980
aS'Quantum of Solace'
p1981
aS'Babel'
p1982
aS'Steve Jobs'
p1983
aS'Meet the Robinsons'
p1984
aS'Splash'
p1985
aS'Twins'
p1986
aS'Fast & Furious 6'
p1987
aS'Manhattan'
p1988
aS'Touch of Evil'
p1989
aS'Jurassic Park III'
p1990
aS'Black Snake Moan'
p1991
aS'Notting Hill'
p1992
aS'Miami Vice'
p1993
aS'Harold and Maude'
p1994
aS'Scary Movie'
p1995
aS'Scott Pilgrim vs. the World'
p1996
aS'Ghost Dog: The Way of the Samurai'
p1997
aS'The Texas Chain Saw Massacre'
p1998
aS'Sisters'
p1999
aS'Edward Scissorhands'
p2000
aS'Thirteen'
p2001
aS'Pitch Perfect'
p2002
aS'Sully'
p2003
aS'Minority Report'
p2004
aS'Quarantine'
p2005
aS'Central Intelligence'
p2006
aS'Moonlight'
p2007
aS'Dead Man Down'
p2008
aS'Becoming Jane'
p2009
aS'Disturbia'
p2010
aS'The Italian Job'
p2011
aS'Before I Go to Sleep'
p2012
aS'Cabin Fever'
p2013
aS'Harry Potter and the Deathly Hallows: Part 1'
p2014
aS'Trollhunter'
p2015
aS'Showtime'
p2016
aS'Harry Brown'
p2017
aS'Into the Woods'
p2018
aS'Sahara'
p2019
aS'Buried'
p2020
aS'The General'
p2021
aS'Sweeney Todd: The Demon Barber of Fleet Street'
p2022
aS'Mission: Impossible II'
p2023
aS'The Karate Kid'
p2024
aS'Crimson Tide'
p2025
aS"The World's End"
p2026
aS'The City of Lost Children'
p2027
aS'The Best Exotic Marigold Hotel'
p2028
aS'Doubt'
p2029
aS'Fight Club'
p2030
aS'Coming to America'
p2031
aS"What's Your Number?"
p2032
aS'The Monuments Men'
p2033
aS'Lara Croft: Tomb Raider'
p2034
aS'This Is 40'
p2035
aS'The Experiment'
p2036
aS'Universal Soldier'
p2037
aS'Machine Gun Preacher'
p2038
aS'Doctor Zhivago'
p2039
aS'Kindergarten Cop'
p2040
aS'Argo'
p2041
aS'Hereafter'
p2042
aS'An Education'
p2043
aS'High Tension'
p2044
aS'The Lucky One'
p2045
aS'Van Helsing'
p2046
aS'The Bodyguard'
p2047
aS'Hail  Caesar!'
p2048
aS'The Man Who Shot Liberty Valance'
p2049
aS'Spy'
p2050
aS'12 Years a Slave'
p2051
aS'City of Ember'
p2052
aS'Chicken Little'
p2053
aS'Big Trouble in Little China'
p2054
aS'The Sixth Sense'
p2055
aS'Locke'
p2056
aS'Rust and Bone'
p2057
aS'Get Out'
p2058
aS"Ocean's Eleven"
p2059
aS'Wall Street: Money Never Sleeps'
p2060
aS'Kick-Ass 2'
p2061
aS'Primer'
p2062
aS'Double Jeopardy'
p2063
aS'The Outlaw Josey Wales'
p2064
aS'The Fault in Our Stars'
p2065
aS'Rain Man'
p2066
aS'Never Been Kissed'
p2067
aS'Crouching Tiger  Hidden Dragon'
p2068
aS'Zoolander'
p2069
aS'The Boondock Saints II: All Saints Day'
p2070
aS'Total Recall'
p2071
aS'Ant-Man'
p2072
aS'White Chicks'
p2073
aS'Castle in the Sky'
p2074
aS'My Fair Lady'
p2075
aS"Trick 'r Treat"
p2076
aS'Spirited Away'
p2077
aS'Hansel & Gretel: Witch Hunters'
p2078
aS'Ace Ventura: When Nature Calls'
p2079
aS'Beverly Hills Cop II'
p2080
aS'Sing Street'
p2081
aS'1408'
p2082
aS'The Gold Rush'
p2083
aS'First Knight'
p2084
aS'Ladder 49'
p2085
aS'Here Comes the Boom'
p2086
aS'Blue Valentine'
p2087
aS'Chicken Run'
p2088
aS'EuroTrip'
p2089
aS'Beautiful Creatures'
p2090
aS'Piranha 3D'
p2091
aS'The Good Dinosaur'
p2092
aS'National Treasure'
p2093
aS'Tangled'
p2094
aS'We Were Soldiers'
p2095
aS'Dogville'
p2096
aS'Me  Myself & Irene'
p2097
aS'The Dreamers'
p2098
aS'Empire of the Sun'
p2099
aS'R.I.P.D.'
p2100
aS'Tinker Tailor Soldier Spy'
p2101
aS'Changeling'
p2102
aS'Alien'
p2103
aS'Lethal Weapon 4'
p2104
aS'The Incredibles'
p2105
aS'Ice Age'
p2106
aS'Lethal Weapon 3'
p2107
aS'Lethal Weapon 2'
p2108
aS'The Punisher'
p2109
aS'Four Lions'
p2110
aS'Magnolia'
p2111
aS'Captain Phillips'
p2112
aS'The Specialist'
p2113
aS'Dune'
p2114
aS'Green Zone'
p2115
aS"Winter's Bone"
p2116
aS'Event Horizon'
p2117
aS'Dreamcatcher'
p2118
aS'Gods of Egypt'
p2119
aS'The Running Man'
p2120
aS'Planes  Trains & Automobiles'
p2121
aS'The Shining'
p2122
aS'Terminator 3: Rise of the Machines'
p2123
aS'Crocodile Dundee'
p2124
aS'Tango & Cash'
p2125
aS'Religulous'
p2126
aS'The Call'
p2127
aS'American Sniper'
p2128
aS'Mary and Max'
p2129
aS"You Don't Mess with the Zohan"
p2130
aS'The Descent'
p2131
aS'Mysterious Skin'
p2132
aS'Punch-Drunk Love'
p2133
aS'Blade II'
p2134
aS'Austin Powers: International Man of Mystery'
p2135
aS'Shot Caller'
p2136
aS'Uncle Buck'
p2137
aS'The Conversation'
p2138
aS'The Men Who Stare at Goats'
p2139
aS'Children of Men'
p2140
aS'Seventh Son'
p2141
aS'Bloodsport'
p2142
aS'Intolerable Cruelty'
p2143
aS'The Secret World of Arrietty'
p2144
aS'Be Cool'
p2145
aS'T2 Trainspotting'
p2146
aS'Swiss Army Man'
p2147
aS'Bridge of Spies'
p2148
aS'Black Mass'
p2149
aS'The Core'
p2150
aS'Hellboy II: The Golden Army'
p2151
aS"Madagascar 3: Europe's Most Wanted"
p2152
aS'Primal Fear'
p2153
aS'Death Becomes Her'
p2154
aS'Breathless'
p2155
aS'My Week with Marilyn'
p2156
aS'The Bounty Hunter'
p2157
aS'A Nightmare on Elm Street 3: Dream Warriors'
p2158
aS'Dinner for Schmucks'
p2159
aS'Octopussy'
p2160
aS'Riddick'
p2161
aS'The Sum of All Fears'
p2162
aS'The Killing'
p2163
aS'Hotel Transylvania 2'
p2164
aS'The Orphanage'
p2165
aS'Girl  Interrupted'
p2166
aS'Memento'
p2167
aS'Ghost'
p2168
aS'Spring Breakers'
p2169
aS'The Eagle'
p2170
aS'Batman and Harley Quinn'
p2171
aS'Trainwreck'
p2172
aS'Rope'
p2173
aS'RED 2'
p2174
aS'The Little Mermaid'
p2175
aS'Role Models'
p2176
aS'Deepwater Horizon'
p2177
aS'Shrek'
p2178
aS'The Pianist'
p2179
aS'Highlander'
p2180
aS'The BFG'
p2181
aS'The One'
p2182
aS'Bad Santa'
p2183
aS'The Thirteenth Floor'
p2184
aS'Traitor'
p2185
aS'Back to the Future Part III'
p2186
aS'Horns'
p2187
aS'The Green Hornet'
p2188
aS'Tucker and Dale vs Evil'
p2189
aS'Nightcrawler'
p2190
aS'Turner & Hooch'
p2191
aS'Hot Shots! Part Deux'
p2192
aS'Flushed Away'
p2193
aS'The Three Musketeers'
p2194
aS'Tremors'
p2195
aS'Love Actually'
p2196
aS'Moonrise Kingdom'
p2197
aS'Date Night'
p2198
aS'La Vie en Rose'
p2199
aS'Stand by Me'
p2200
aS'Lars and the Real Girl'
p2201
aS'The Wedding Ringer'
p2202
aS'Train to Busan'
p2203
aS'The Secret in Their Eyes'
p2204
aS'Dogtooth'
p2205
aS'Witness for the Prosecution'
p2206
aS'Beginners'
p2207
aS'Rocky Balboa'
p2208
aS'The Ring'
p2209
aS'Trance'
p2210
aS'Sweet November'
p2211
aS'Blood Diamond'
p2212
aS'The Book of Life'
p2213
aS'Sky High'
p2214
aS'Jackass 3D'
p2215
aS'Due Date'
p2216
aS'The African Queen'
p2217
aS'Terminator Genisys'
p2218
aS'The Last Stand'
p2219
aS'The Last Castle'
p2220
aS'13 Going on 30'
p2221
aS'Conspiracy Theory'
p2222
aS'Talladega Nights: The Ballad of Ricky Bobby'
p2223
aS'Killer Joe'
p2224
aS'Revolutionary Road'
p2225
aS'The Ghost Writer'
p2226
aS'Reign Over Me'
p2227
aS'Rear Window'
p2228
aS'The Time Machine'
p2229
aS'Wrong Turn'
p2230
aS'Mulan'
p2231
aS'Saw'
p2232
aS'Exodus: Gods and Kings'
p2233
aS'A Serious Man'
p2234
aS'The Dirty Dozen'
p2235
aS'The Nanny Diaries'
p2236
aS'Magic in the Moonlight'
p2237
aS'Slumdog Millionaire'
p2238
aS'Dial M for Murder'
p2239
aS'Next'
p2240
aS'The Frighteners'
p2241
aS'Donnie Brasco'
p2242
aS'Proof of Life'
p2243
aS'The Judge'
p2244
aS'Babe'
p2245
aS'The Net'
p2246
aS'Just Friends'
p2247
aS'Fish Tank'
p2248
aS'The Hunger Games: Mockingjay - Part 2'
p2249
aS'Source Code'
p2250
aS'Bicycle Thieves'
p2251
aS'The Living Daylights'
p2252
aS'Zoolander 2'
p2253
aS'Rambo: First Blood Part II'
p2254
aS'TRON: Legacy'
p2255
aS'Daybreakers'
p2256
aS'Mike and Dave Need Wedding Dates'
p2257
aS'Charlie Bartlett'
p2258
aS'Star Trek: Generations'
p2259
aS"Dude  Where's My Car?"
p2260
aS'Penguins of Madagascar'
p2261
aS'Pleasantville'
p2262
aS'Police Academy'
p2263
aS'The Parent Trap'
p2264
aS'Horrible Bosses'
p2265
aS'Wild Wild West'
p2266
aS'Demolition'
p2267
aS'The American'
p2268
aS'La Dolce Vita'
p2269
aS'Kramer vs. Kramer'
p2270
aS'Reservoir Dogs'
p2271
aS'Disaster Movie'
p2272
aS'The Breakfast Club'
p2273
aS'Gangster Squad'
p2274
aS'300: Rise of an Empire'
p2275
aS'The Bucket List'
p2276
aS'Submarine'
p2277
aS'A League of Their Own'
p2278
aS'Movie 43'
p2279
aS"Kiki's Delivery Service"
p2280
aS'No Strings Attached'
p2281
aS'Life Is Beautiful'
p2282
aS'Bajrangi Bhaijaan'
p2283
aS'88 Minutes'
p2284
aS"The Huntsman: Winter's War"
p2285
aS'The Man from U.N.C.L.E.'
p2286
aS'Timeline'
p2287
aS'Flubber'
p2288
aS'MASH'
p2289
aS'The November Man'
p2290
aS'The Transporter'
p2291
aS'eXistenZ'
p2292
aS'Machete Kills'
p2293
aS'127 Hours'
p2294
aS'Lincoln'
p2295
aS'The Haunting'
p2296
aS'Raising Arizona'
p2297
aS'Splice'
p2298
aS'Collateral Damage'
p2299
aS'Cloudy with a Chance of Meatballs'
p2300
aS'The 40-Year-Old Virgin'
p2301
aS'Step Up'
p2302
aS'The 400 Blows'
p2303
aS'Dawn of the Planet of the Apes'
p2304
aS'The Angry Birds Movie'
p2305
aS'The Descendants'
p2306
aS'The Aristocats'
p2307
aS'Dumb and Dumber To'
p2308
aS'Gunday'
p2309
aS'Antz'
p2310
aS'Cool Hand Luke'
p2311
aS'The Edge'
p2312
aS'28 Weeks Later'
p2313
aS'Casper'
p2314
aS'How the Grinch Stole Christmas'
p2315
aS'The Rock'
p2316
aS'The Impossible'
p2317
aS'Babylon A.D.'
p2318
aS'The Godfather: Part II'
p2319
aS'Furious 7'
p2320
aS'Desperado'
p2321
aS'Bridge to Terabithia'
p2322
aS'Fast Five'
p2323
aS'Pirates of the Caribbean: On Stranger Tides'
p2324
aS'Hacksaw Ridge'
p2325
aS"It's Complicated"
p2326
aS'Now You See Me 2'
p2327
aS'Alice Through the Looking Glass'
p2328
aS'2001: A Space Odyssey'
p2329
aS'17 Again'
p2330
aS'The Break-Up'
p2331
aS'Rocky V'
p2332
aS'Batman'
p2333
aS"Ender's Game"
p2334
aS'Open Your Eyes'
p2335
aS'Get Him to the Greek'
p2336
aS'Showgirls'
p2337
aS'Jay and Silent Bob Strike Back'
p2338
aS'Air Force One'
p2339
aS'The Usual Suspects'
p2340
aS'South Park: Bigger  Longer & Uncut'
p2341
aS'Live Free or Die Hard'
p2342
aS'Forrest Gump'
p2343
aS'This Is Where I Leave You'
p2344
aS'Allegiant'
p2345
aS'The Mask of Zorro'
p2346
aS'Titanic'
p2347
aS'The Lord of the Rings: The Fellowship of the Ring'
p2348
aS'Priest'
p2349
aS'Homefront'
p2350
aS'Gamer'
p2351
aS'Saturday Night Fever'
p2352
aS'Don Jon'
p2353
aS'A Fish Called Wanda'
p2354
aS'The Wild Bunch'
p2355
aS'Pineapple Express'
p2356
aS'Scooby-Doo'
p2357
aS'Catch Me If You Can'
p2358
aS'Baahubali: The Beginning'
p2359
aS'Finding Nemo'
p2360
aS'The Firm'
p2361
aS'Zombieland'
p2362
aS'Platoon'
p2363
aS'Chocolat'
p2364
aS'Insidious: Chapter 2'
p2365
aS'Insidious: Chapter 3'
p2366
aS'Animal House'
p2367
aS'Conquest 1453'
p2368
aS'GoldenEye'
p2369
aS'Meet Joe Black'
p2370
aS'Backdraft'
p2371
aS'Bad Lieutenant: Port of Call New Orleans'
p2372
aS'Divergent'
p2373
aS'Sixteen Candles'
p2374
aS'The Simpsons Movie'
p2375
aS'Norbit'
p2376
aS'Audition'
p2377
aS'The Curse of the Were-Rabbit'
p2378
aS'Commando'
p2379
aS'Jack the Giant Slayer'
p2380
aS'10 Cloverfield Lane'
p2381
aS'Notes on a Scandal'
p2382
aS'Pixels'
p2383
aS'Magic Mike'
p2384
aS'Borat: Cultural Learnings of America for Make Benefit Glorious Nation of Kazakhstan'
p2385
aS'Bad Boys II'
p2386
aS'Straight Outta Compton'
p2387
aS'American History X'
p2388
aS'The Postman'
p2389
aS'Once'
p2390
aS'The Hours'
p2391
aS'Seven Psychopaths'
p2392
aS'Jack Reacher: Never Go Back'
p2393
aS"The King's Speech"
p2394
aS'The Debt'
p2395
aS'Shaun of the Dead'
p2396
aS"Don't Breathe"
p2397
aS'American Gangster'
p2398
aS'The Legend of Zorro'
p2399
aS'Scary Movie 5'
p2400
aS'Scary Movie 4'
p2401
aS'Bonnie and Clyde'
p2402
aS'Scary Movie 3'
p2403
aS'Scary Movie 2'
p2404
aS'Aladdin'
p2405
aS'Spider-Man'
p2406
aS'30 Minutes or Less'
p2407
aS'Pi'
p2408
aS'Double Indemnity'
p2409
aS"Ocean's Thirteen"
p2410
aS'Godzilla'
p2411
aS'The Godfather'
p2412
aS'The Bourne Identity'
p2413
aS'Definitely  Maybe'
p2414
aS'Lawless'
p2415
aS'The Life of David Gale'
p2416
aS'Anchorman: The Legend of Ron Burgundy'
p2417
aS'Mississippi Burning'
p2418
aS'The Messenger: The Story of Joan of Arc'
p2419
aS'The Pursuit of Happyness'
p2420
aS'PK'
p2421
aS'The Matrix Revolutions'
p2422
aS'Crazy Heart'
p2423
aS'Percy Jackson & the Olympians: The Lightning Thief'
p2424
aS'Happy Feet'
p2425
aS'Your Highness'
p2426
aS'The Wolverine'
p2427
aS'Carrie'
p2428
aS'The Hills Have Eyes'
p2429
aS'Vanilla Sky'
p2430
aS'Hannah and Her Sisters'
p2431
aS'Natural Born Killers'
p2432
aS'The Other Guys'
p2433
aS'Hitch'
p2434
aS'The Wave'
p2435
aS'The Third Man'
p2436
aS'What Dreams May Come'
p2437
aS"A Knight's Tale"
p2438
aS'Dick Tracy'
p2439
aS'Team America: World Police'
p2440
aS'The Hunt for Red October'
p2441
aS'Amores Perros'
p2442
aS'The Reader'
p2443
aS'Her'
p2444
aS'Patton'
p2445
aS"He's Just Not That Into You"
p2446
aS'Persepolis'
p2447
aS'Brick'
p2448
aS'Planet Terror'
p2449
aS'Seeking a Friend for the End of the World'
p2450
aS'The Iron Giant'
p2451
aS'Transformers: The Last Knight'
p2452
aS'As Good as It Gets'
p2453
aS'Marley & Me'
p2454
aS'The Abyss'
p2455
aS'Dogma'
p2456
aS'Brooklyn'
p2457
aS'Cowboys & Aliens'
p2458
aS'Talk to Her'
p2459
aS"The Hitchhiker's Guide to the Galaxy"
p2460
aS'Out of the Furnace'
p2461
aS'Blue Velvet'
p2462
aS'Derailed'
p2463
aS'King Arthur: Legend of the Sword'
p2464
aS'Dan in Real Life'
p2465
aS'Enemy'
p2466
aS'Frailty'
p2467
aS'Kate & Leopold'
p2468
aS'In the Heart of the Sea'
p2469
aS'Sympathy for Mr. Vengeance'
p2470
aS'Sing'
p2471
aS'Zathura: A Space Adventure'
p2472
aS'Ghost Rider'
p2473
aS'Paul Blart: Mall Cop'
p2474
aS'John Wick: Chapter 2'
p2475
aS'Star Trek VI: The Undiscovered Country'
p2476
aS'Halloween'
p2477
aS'The Fox and the Hound'
p2478
aS'Die Hard 2'
p2479
aS'The Girl Next Door'
p2480
aS'Dazed and Confused'
p2481
aS'Am\xc3\xa9lie'
p2482
aS'Amour'
p2483
aS'Elite Squad: The Enemy Within'
p2484
aS'2012'
p2485
aS'The Big Short'
p2486
aS'Napoleon Dynamite'
p2487
aS'A Simple Plan'
p2488
aS'Star Wars: Episode VI - Return of the Jedi'
p2489
aS'The Curious Case of Benjamin Button'
p2490
aS'The Kings of Summer'
p2491
aS'A Good Day to Die Hard'
p2492
aS'Red Riding Hood'
p2493
aS'Major League'
p2494
aS'Nosferatu'
p2495
aS'The Ruins'
p2496
aS'Dope'
p2497
aS'District 9'
p2498
aS'Bean'
p2499
aS'Enemy of the State'
p2500
aS'Boyz n the Hood'
p2501
aS'Secret Window'
p2502
aS'Brokeback Mountain'
p2503
aS'The Village'
p2504
aS'The Spiderwick Chronicles'
p2505
aS'Melancholia'
p2506
aS'Abraham Lincoln: Vampire Hunter'
p2507
aS'Reis'
p2508
aS'Inside Out'
p2509
aS'The Big Sleep'
p2510
aS'The Shallows'
p2511
aS'Entrapment'
p2512
aS'The Lincoln Lawyer'
p2513
aS'Avatar'
p2514
aS'Neighbors'
p2515
aS"Look Who's Talking"
p2516
aS'Manchester by the Sea'
p2517
aS'Jerry Maguire'
p2518
aS"The 'Burbs"
p2519
aS"Miss Peregrine's Home for Peculiar Children"
p2520
aS'Avengers: Age of Ultron'
p2521
aS'Swades'
p2522
aS'The Way Back'
p2523
aS'Resident Evil: The Final Chapter'
p2524
aS'The Secret Life of Walter Mitty'
p2525
aS'Pride & Prejudice'
p2526
aS'The Family'
p2527
aS'Munna Bhai M.B.B.S.'
p2528
aS'Couples Retreat'
p2529
aS'Patriot Games'
p2530
aS'X-Men 2'
p2531
aS'The Pelican Brief'
p2532
aS'The Best of Me'
p2533
aS'The Place Beyond the Pines'
p2534
aS'Unthinkable'
p2535
aS'Patch Adams'
p2536
aS'The Princess Diaries'
p2537
aS'Transformers: Age of Extinction'
p2538
aS'My Name Is Khan'
p2539
aS'The Avengers'
p2540
aS'Friday'
p2541
aS'Like Crazy'
p2542
aS'Robots'
p2543
aS'Paddington'
p2544
aS'Under the Skin'
p2545
aS'All About My Mother'
p2546
aS'Dumb and Dumber'
p2547
aS"New Year's Eve"
p2548
aS'The Boy in the Striped Pajamas'
p2549
aS'You  Me and Dupree'
p2550
aS'It Happened One Night'
p2551
aS'Entourage'
p2552
aS'In the Name of the Father'
p2553
aS'Thank You for Smoking'
p2554
aS'Wild Strawberries'
p2555
aS'Taxi Driver'
p2556
aS'Rounders'
p2557
aS'Fallen'
p2558
aS'Angel Heart'
p2559
aS'Mechanic: Resurrection'
p2560
aS'Flatliners'
p2561
aS'Casablanca'
p2562
aS'Creed'
p2563
aS'The Ring Two'
p2564
aS'Penelope'
p2565
aS'The Santa Clause'
p2566
aS'Deliverance'
p2567
aS'King Arthur'
p2568
aS'Corpse Bride'
p2569
aS'Your Name.'
p2570
aS"Breakfast at Tiffany's"
p2571
aS'Austin Powers in Goldmember'
p2572
aS'Kiss of the Dragon'
p2573
aS'Haywire'
p2574
aS'The New World'
p2575
aS'Modern Times'
p2576
aS'Walk the Line'
p2577
aS'The League of Extraordinary Gentlemen'
p2578
aS'Cliffhanger'
p2579
aS'Cloverfield'
p2580
aS'The Last Song'
p2581
aS'Breach'
p2582
aS'Moneyball'
p2583
aS'James and the Giant Peach'
p2584
aS'Warrior'
p2585
aS'The Losers'
p2586
aS'Seabiscuit'
p2587
aS'RocknRolla'
p2588
aS'Raging Bull'
p2589
aS'Starship Troopers'
p2590
aS'Stepmom'
p2591
aS'Warcraft'
p2592
aS'The French Connection'
p2593
aS'K-PAX'
p2594
aS'Teenage Mutant Ninja Turtles: Out of the Shadows'
p2595
aS'The Stepford Wives'
p2596
aS'Slither'
p2597
aS'The Guard'
p2598
aS'Ri\xc2\xa2hie Ri\xc2\xa2h'
p2599
aS'Up'
p2600
aS'A Prophet'
p2601
aS'Scoop'
p2602
aS'Rango'
p2603
aS'A Separation'
p2604
aS'Outlander'
p2605
aS'Willy Wonka & the Chocolate Factory'
p2606
aS'Dead Snow'
p2607
aS'Stigmata'
p2608
aS'All About Eve'
p2609
aS'Planet of the Apes'
p2610
aS'Leap Year'
p2611
aS'Butch Cassidy and the Sundance Kid'
p2612
aS'A Walk to Remember'
p2613
aS'Pinocchio'
p2614
aS'Big Fish'
p2615
aS'Hellboy'
p2616
aS'Star Trek'
p2617
aS'Spider-Man: Homecoming'
p2618
aS'Eye in the Sky'
p2619
aS'Hardcore Henry'
p2620
aS'Drag Me to Hell'
p2621
aS"Valentine's Day"
p2622
aS'Network'
p2623
aS'Gattaca'
p2624
aS'Grease'
p2625
aS'Training Day'
p2626
aS'Beastly'
p2627
aS'Die Hard'
p2628
aS'Stripes'
p2629
aS'Dirty Grandpa'
p2630
aS'Hostel: Part II'
p2631
aS'What We Do in the Shadows'
p2632
aS'The Book of Eli'
p2633
aS'Miss Congeniality'
p2634
aS'Love  Rosie'
p2635
aS'Bad Boys'
p2636
aS'Pink Floyd: The Wall'
p2637
aS'Anastasia'
p2638
aS'The Fog'
p2639
aS'Following'
p2640
aS'Fantasia'
p2641
aS'The Haunting in Connecticut'
p2642
aS'The Princess Diaries 2: Royal Engagement'
p2643
aS'The Exorcist'
p2644
aS'Kingdom of Heaven'
p2645
aS'Ted'
p2646
aS'Non-Stop'
p2647
aS'Looper'
p2648
aS'Point Break'
p2649
aS'Meet the Spartans'
p2650
aS'Zero Dark Thirty'
p2651
aS'Vertigo'
p2652
aS'Easy A'
p2653
aS'Escape from L.A.'
p2654
aS'Invictus'
p2655
aS"National Lampoon's Christmas Vacation"
p2656
aS'Short Term 12'
p2657
aS'Surrogates'
p2658
aS'The Holiday'
p2659
aS'40 Days and 40 Nights'
p2660
aS'Dunkirk'
p2661
aS'Wimbledon'
p2662
aS'Coyote Ugly'
p2663
aS'Everything Is Illuminated'
p2664
aS'Save the Last Dance'
p2665
aS'Sunshine'
p2666
aS'42'
p2667
aS'The Mountain II'
p2668
aS'A Clockwork Orange'
p2669
aS'Interview with the Vampire: The Vampire Chronicles'
p2670
aS'The Phantom of the Opera'
p2671
aS'Cellular'
p2672
aS'Mr. Peabody & Sherman'
p2673
aS'Runaway Jury'
p2674
aS'Where the Wild Things Are'
p2675
aS'Romancing the Stone'
p2676
aS'The Ninth Gate'
p2677
aS'Hanna'
p2678
aS"She's All That"
p2679
aS'Land of the Dead'
p2680
aS'The Wrestler'
p2681
aS'Larry Crowne'
p2682
aS'The English Patient'
p2683
aS'Resident Evil: Extinction'
p2684
aS'500 Days of Summer'
p2685
aS'Nymphomaniac: Vol. I'
p2686
aS'Last Vegas'
p2687
aS'The Rite'
p2688
aS'Harry Potter and the Half-Blood Prince'
p2689
aS'Let Me In'
p2690
aS'Guardians of the Galaxy'
p2691
aS'Pirate Radio'
p2692
aS'School of Rock'
p2693
aS'Paper Towns'
p2694
aS'Dallas Buyers Club'
p2695
aS'La Haine'
p2696
aS'The Untouchables'
p2697
aS'Kung Fu Hustle'
p2698
atp2699
Rp2700
.